
init.kef:     file format binary


Disassembly of section .data:

00000000 <.data>:
       0:	4b                   	rex.WXB
       1:	45                   	rex.RB
       2:	46 00 c0             	rex.RX add %r8b,%al
       5:	05 00 00 10 00       	add    $0x100000,%eax
       a:	00 00                	add    %al,(%rax)
       c:	78 59                	js     0x67
       e:	00 00                	add    %al,(%rax)
      10:	eb fe                	jmp    0x10
      12:	cc                   	int3
      13:	cc                   	int3
      14:	cc                   	int3
      15:	cc                   	int3
      16:	cc                   	int3
      17:	cc                   	int3
      18:	cc                   	int3
      19:	cc                   	int3
      1a:	cc                   	int3
      1b:	cc                   	int3
      1c:	cc                   	int3
      1d:	cc                   	int3
      1e:	cc                   	int3
      1f:	cc                   	int3
      20:	48 85 ff             	test   %rdi,%rdi
      23:	74 5d                	je     0x82
      25:	53                   	push   %rbx
      26:	48 83 ec 30          	sub    $0x30,%rsp
      2a:	c7 44 24 0f 00 00 00 	movl   $0x0,0xf(%rsp)
      31:	00 
      32:	48 c7 44 24 08 00 00 	movq   $0x0,0x8(%rsp)
      39:	00 00 
      3b:	48 c7 04 24 00 00 00 	movq   $0x0,(%rsp)
      42:	00 
      43:	48 b9 cd cc cc cc cc 	movabs $0xcccccccccccccccd,%rcx
      4a:	cc cc cc 
      4d:	48 89 f8             	mov    %rdi,%rax
      50:	48 f7 e1             	mul    %rcx
      53:	48 c1 ea 03          	shr    $0x3,%rdx
      57:	8d 04 12             	lea    (%rdx,%rdx,1),%eax
      5a:	8d 04 80             	lea    (%rax,%rax,4),%eax
      5d:	89 f9                	mov    %edi,%ecx
      5f:	29 c1                	sub    %eax,%ecx
      61:	80 c9 30             	or     $0x30,%cl
      64:	88 4c 24 13          	mov    %cl,0x13(%rsp)
      68:	bb 01 00 00 00       	mov    $0x1,%ebx
      6d:	48 83 ff 09          	cmp    $0x9,%rdi
      71:	77 20                	ja     0x93
      73:	48 8d 74 24 13       	lea    0x13(%rsp),%rsi
      78:	ba 01 00 00 00       	mov    $0x1,%edx
      7d:	e9 1e 05 00 00       	jmp    0x5a0
      82:	48 8d 3d 82 45 00 00 	lea    0x4582(%rip),%rdi        # 0x460b
      89:	be 01 00 00 00       	mov    $0x1,%esi
      8e:	31 c0                	xor    %eax,%eax
      90:	0f 05                	syscall
      92:	c3                   	ret
      93:	48 be 9a 99 99 99 99 	movabs $0x199999999999999a,%rsi
      9a:	99 99 19 
      9d:	48 89 d0             	mov    %rdx,%rax
      a0:	48 89 d1             	mov    %rdx,%rcx
      a3:	48 f7 e6             	mul    %rsi
      a6:	01 d2                	add    %edx,%edx
      a8:	8d 04 92             	lea    (%rdx,%rdx,4),%eax
      ab:	29 c1                	sub    %eax,%ecx
      ad:	80 c9 30             	or     $0x30,%cl
      b0:	88 4c 24 12          	mov    %cl,0x12(%rsp)
      b4:	48 83 ff 64          	cmp    $0x64,%rdi
      b8:	73 0f                	jae    0xc9
      ba:	48 8d 74 24 12       	lea    0x12(%rsp),%rsi
      bf:	ba 02 00 00 00       	mov    $0x2,%edx
      c4:	e9 d7 04 00 00       	jmp    0x5a0
      c9:	48 89 f8             	mov    %rdi,%rax
      cc:	48 c1 e8 02          	shr    $0x2,%rax
      d0:	48 b9 c3 f5 28 5c 8f 	movabs $0x28f5c28f5c28f5c3,%rcx
      d7:	c2 f5 28 
      da:	48 f7 e1             	mul    %rcx
      dd:	48 89 d1             	mov    %rdx,%rcx
      e0:	48 c1 e9 02          	shr    $0x2,%rcx
      e4:	48 89 c8             	mov    %rcx,%rax
      e7:	48 f7 e6             	mul    %rsi
      ea:	01 d2                	add    %edx,%edx
      ec:	8d 04 92             	lea    (%rdx,%rdx,4),%eax
      ef:	29 c1                	sub    %eax,%ecx
      f1:	80 c9 30             	or     $0x30,%cl
      f4:	88 4c 24 11          	mov    %cl,0x11(%rsp)
      f8:	48 81 ff e8 03 00 00 	cmp    $0x3e8,%rdi
      ff:	73 0f                	jae    0x110
     101:	48 8d 74 24 11       	lea    0x11(%rsp),%rsi
     106:	ba 03 00 00 00       	mov    $0x3,%edx
     10b:	e9 90 04 00 00       	jmp    0x5a0
     110:	48 89 f8             	mov    %rdi,%rax
     113:	48 c1 e8 03          	shr    $0x3,%rax
     117:	48 b9 cf f7 53 e3 a5 	movabs $0x20c49ba5e353f7cf,%rcx
     11e:	9b c4 20 
     121:	48 f7 e1             	mul    %rcx
     124:	48 89 d1             	mov    %rdx,%rcx
     127:	48 c1 e9 04          	shr    $0x4,%rcx
     12b:	48 89 c8             	mov    %rcx,%rax
     12e:	48 f7 e6             	mul    %rsi
     131:	01 d2                	add    %edx,%edx
     133:	8d 04 92             	lea    (%rdx,%rdx,4),%eax
     136:	29 c1                	sub    %eax,%ecx
     138:	80 c9 30             	or     $0x30,%cl
     13b:	88 4c 24 10          	mov    %cl,0x10(%rsp)
     13f:	48 81 ff 10 27 00 00 	cmp    $0x2710,%rdi
     146:	73 0f                	jae    0x157
     148:	48 8d 74 24 10       	lea    0x10(%rsp),%rsi
     14d:	ba 04 00 00 00       	mov    $0x4,%edx
     152:	e9 49 04 00 00       	jmp    0x5a0
     157:	48 b9 4b 59 86 38 d6 	movabs $0x346dc5d63886594b,%rcx
     15e:	c5 6d 34 
     161:	48 89 f8             	mov    %rdi,%rax
     164:	48 f7 e1             	mul    %rcx
     167:	48 89 d1             	mov    %rdx,%rcx
     16a:	48 c1 e9 0b          	shr    $0xb,%rcx
     16e:	48 89 c8             	mov    %rcx,%rax
     171:	48 f7 e6             	mul    %rsi
     174:	01 d2                	add    %edx,%edx
     176:	8d 04 92             	lea    (%rdx,%rdx,4),%eax
     179:	29 c1                	sub    %eax,%ecx
     17b:	80 c9 30             	or     $0x30,%cl
     17e:	88 4c 24 0f          	mov    %cl,0xf(%rsp)
     182:	48 81 ff a0 86 01 00 	cmp    $0x186a0,%rdi
     189:	73 0f                	jae    0x19a
     18b:	48 8d 74 24 0f       	lea    0xf(%rsp),%rsi
     190:	ba 05 00 00 00       	mov    $0x5,%edx
     195:	e9 06 04 00 00       	jmp    0x5a0
     19a:	48 89 f8             	mov    %rdi,%rax
     19d:	48 c1 e8 05          	shr    $0x5,%rax
     1a1:	48 b9 43 78 b4 71 c4 	movabs $0xa7c5ac471b47843,%rcx
     1a8:	5a 7c 0a 
     1ab:	48 f7 e1             	mul    %rcx
     1ae:	48 89 d1             	mov    %rdx,%rcx
     1b1:	48 c1 e9 07          	shr    $0x7,%rcx
     1b5:	48 89 c8             	mov    %rcx,%rax
     1b8:	48 f7 e6             	mul    %rsi
     1bb:	01 d2                	add    %edx,%edx
     1bd:	8d 04 92             	lea    (%rdx,%rdx,4),%eax
     1c0:	29 c1                	sub    %eax,%ecx
     1c2:	80 c9 30             	or     $0x30,%cl
     1c5:	88 4c 24 0e          	mov    %cl,0xe(%rsp)
     1c9:	48 81 ff 40 42 0f 00 	cmp    $0xf4240,%rdi
     1d0:	73 0f                	jae    0x1e1
     1d2:	48 8d 74 24 0e       	lea    0xe(%rsp),%rsi
     1d7:	ba 06 00 00 00       	mov    $0x6,%edx
     1dc:	e9 bf 03 00 00       	jmp    0x5a0
     1e1:	48 b9 db 34 b6 d7 82 	movabs $0x431bde82d7b634db,%rcx
     1e8:	de 1b 43 
     1eb:	48 89 f8             	mov    %rdi,%rax
     1ee:	48 f7 e1             	mul    %rcx
     1f1:	48 89 d1             	mov    %rdx,%rcx
     1f4:	48 c1 e9 12          	shr    $0x12,%rcx
     1f8:	48 89 c8             	mov    %rcx,%rax
     1fb:	48 f7 e6             	mul    %rsi
     1fe:	01 d2                	add    %edx,%edx
     200:	8d 04 92             	lea    (%rdx,%rdx,4),%eax
     203:	29 c1                	sub    %eax,%ecx
     205:	80 c9 30             	or     $0x30,%cl
     208:	88 4c 24 0d          	mov    %cl,0xd(%rsp)
     20c:	48 81 ff 80 96 98 00 	cmp    $0x989680,%rdi
     213:	73 0f                	jae    0x224
     215:	48 8d 74 24 0d       	lea    0xd(%rsp),%rsi
     21a:	ba 07 00 00 00       	mov    $0x7,%edx
     21f:	e9 7c 03 00 00       	jmp    0x5a0
     224:	48 b9 bd 42 7a e5 d5 	movabs $0xd6bf94d5e57a42bd,%rcx
     22b:	94 bf d6 
     22e:	48 89 f8             	mov    %rdi,%rax
     231:	48 f7 e1             	mul    %rcx
     234:	48 89 d1             	mov    %rdx,%rcx
     237:	48 c1 e9 17          	shr    $0x17,%rcx
     23b:	48 89 c8             	mov    %rcx,%rax
     23e:	48 f7 e6             	mul    %rsi
     241:	01 d2                	add    %edx,%edx
     243:	8d 04 92             	lea    (%rdx,%rdx,4),%eax
     246:	29 c1                	sub    %eax,%ecx
     248:	80 c9 30             	or     $0x30,%cl
     24b:	88 4c 24 0c          	mov    %cl,0xc(%rsp)
     24f:	48 81 ff 00 e1 f5 05 	cmp    $0x5f5e100,%rdi
     256:	73 0f                	jae    0x267
     258:	48 8d 74 24 0c       	lea    0xc(%rsp),%rsi
     25d:	ba 08 00 00 00       	mov    $0x8,%edx
     262:	e9 39 03 00 00       	jmp    0x5a0
     267:	48 b9 fd ce 61 84 11 	movabs $0xabcc77118461cefd,%rcx
     26e:	77 cc ab 
     271:	48 89 f8             	mov    %rdi,%rax
     274:	48 f7 e1             	mul    %rcx
     277:	48 89 d1             	mov    %rdx,%rcx
     27a:	48 c1 e9 1a          	shr    $0x1a,%rcx
     27e:	48 89 c8             	mov    %rcx,%rax
     281:	48 f7 e6             	mul    %rsi
     284:	01 d2                	add    %edx,%edx
     286:	8d 04 92             	lea    (%rdx,%rdx,4),%eax
     289:	29 c1                	sub    %eax,%ecx
     28b:	80 c9 30             	or     $0x30,%cl
     28e:	88 4c 24 0b          	mov    %cl,0xb(%rsp)
     292:	48 81 ff 00 ca 9a 3b 	cmp    $0x3b9aca00,%rdi
     299:	73 0f                	jae    0x2aa
     29b:	48 8d 74 24 0b       	lea    0xb(%rsp),%rsi
     2a0:	ba 09 00 00 00       	mov    $0x9,%edx
     2a5:	e9 f6 02 00 00       	jmp    0x5a0
     2aa:	48 89 f8             	mov    %rdi,%rax
     2ad:	48 c1 e8 09          	shr    $0x9,%rax
     2b1:	48 b9 53 5a 9b a0 2f 	movabs $0x44b82fa09b5a53,%rcx
     2b8:	b8 44 00 
     2bb:	48 f7 e1             	mul    %rcx
     2be:	48 89 d1             	mov    %rdx,%rcx
     2c1:	48 c1 e9 0b          	shr    $0xb,%rcx
     2c5:	48 89 c8             	mov    %rcx,%rax
     2c8:	48 f7 e6             	mul    %rsi
     2cb:	01 d2                	add    %edx,%edx
     2cd:	8d 04 92             	lea    (%rdx,%rdx,4),%eax
     2d0:	29 c1                	sub    %eax,%ecx
     2d2:	80 c9 30             	or     $0x30,%cl
     2d5:	88 4c 24 0a          	mov    %cl,0xa(%rsp)
     2d9:	48 89 f8             	mov    %rdi,%rax
     2dc:	48 c1 e8 0a          	shr    $0xa,%rax
     2e0:	48 3d f9 02 95 00    	cmp    $0x9502f9,%rax
     2e6:	73 0f                	jae    0x2f7
     2e8:	48 8d 74 24 0a       	lea    0xa(%rsp),%rsi
     2ed:	ba 0a 00 00 00       	mov    $0xa,%edx
     2f2:	e9 a9 02 00 00       	jmp    0x5a0
     2f7:	48 b9 bf d5 ed bd ce 	movabs $0xdbe6fecebdedd5bf,%rcx
     2fe:	fe e6 db 
     301:	48 89 f8             	mov    %rdi,%rax
     304:	48 f7 e1             	mul    %rcx
     307:	48 c1 ea 21          	shr    $0x21,%rdx
     30b:	48 69 c2 67 66 66 66 	imul   $0x66666667,%rdx,%rax
     312:	48 c1 e8 22          	shr    $0x22,%rax
     316:	01 c0                	add    %eax,%eax
     318:	8d 04 80             	lea    (%rax,%rax,4),%eax
     31b:	29 c2                	sub    %eax,%edx
     31d:	80 ca 30             	or     $0x30,%dl
     320:	88 54 24 09          	mov    %dl,0x9(%rsp)
     324:	48 89 f8             	mov    %rdi,%rax
     327:	48 c1 e8 0b          	shr    $0xb,%rax
     32b:	48 3d dd 0e e9 02    	cmp    $0x2e90edd,%rax
     331:	73 0f                	jae    0x342
     333:	48 8d 74 24 09       	lea    0x9(%rsp),%rsi
     338:	ba 0b 00 00 00       	mov    $0xb,%edx
     33d:	e9 5e 02 00 00       	jmp    0x5a0
     342:	48 b9 ff aa 24 cb 0b 	movabs $0xafebff0bcb24aaff,%rcx
     349:	ff eb af 
     34c:	48 89 f8             	mov    %rdi,%rax
     34f:	48 f7 e1             	mul    %rcx
     352:	48 c1 ea 24          	shr    $0x24,%rdx
     356:	48 69 c2 9a 99 99 19 	imul   $0x1999999a,%rdx,%rax
     35d:	48 c1 e8 20          	shr    $0x20,%rax
     361:	01 c0                	add    %eax,%eax
     363:	8d 04 80             	lea    (%rax,%rax,4),%eax
     366:	29 c2                	sub    %eax,%edx
     368:	80 ca 30             	or     $0x30,%dl
     36b:	88 54 24 08          	mov    %dl,0x8(%rsp)
     36f:	48 89 f8             	mov    %rdi,%rax
     372:	48 c1 e8 0c          	shr    $0xc,%rax
     376:	48 3d 51 4a 8d 0e    	cmp    $0xe8d4a51,%rax
     37c:	73 0f                	jae    0x38d
     37e:	48 8d 74 24 08       	lea    0x8(%rsp),%rsi
     383:	ba 0c 00 00 00       	mov    $0xc,%edx
     388:	e9 13 02 00 00       	jmp    0x5a0
     38d:	48 b9 33 22 d4 5b 02 	movabs $0x232f33025bd42233,%rcx
     394:	33 2f 23 
     397:	48 89 f8             	mov    %rdi,%rax
     39a:	48 f7 e1             	mul    %rcx
     39d:	48 c1 ea 25          	shr    $0x25,%rdx
     3a1:	48 69 c2 9a 99 99 19 	imul   $0x1999999a,%rdx,%rax
     3a8:	48 c1 e8 20          	shr    $0x20,%rax
     3ac:	01 c0                	add    %eax,%eax
     3ae:	8d 04 80             	lea    (%rax,%rax,4),%eax
     3b1:	29 c2                	sub    %eax,%edx
     3b3:	80 ca 30             	or     $0x30,%dl
     3b6:	88 54 24 07          	mov    %dl,0x7(%rsp)
     3ba:	48 89 f8             	mov    %rdi,%rax
     3bd:	48 c1 e8 0d          	shr    $0xd,%rax
     3c1:	48 3d 95 73 c2 48    	cmp    $0x48c27395,%rax
     3c7:	73 0f                	jae    0x3d8
     3c9:	48 8d 74 24 07       	lea    0x7(%rsp),%rsi
     3ce:	ba 0d 00 00 00       	mov    $0xd,%edx
     3d3:	e9 c8 01 00 00       	jmp    0x5a0
     3d8:	48 b9 85 03 ed 92 d0 	movabs $0x384b84d092ed0385,%rcx
     3df:	84 4b 38 
     3e2:	48 89 f8             	mov    %rdi,%rax
     3e5:	48 f7 e1             	mul    %rcx
     3e8:	48 c1 ea 29          	shr    $0x29,%rdx
     3ec:	48 69 c2 9a 99 99 19 	imul   $0x1999999a,%rdx,%rax
     3f3:	48 c1 e8 20          	shr    $0x20,%rax
     3f7:	01 c0                	add    %eax,%eax
     3f9:	8d 04 80             	lea    (%rax,%rax,4),%eax
     3fc:	29 c2                	sub    %eax,%edx
     3fe:	80 ca 30             	or     $0x30,%dl
     401:	88 54 24 06          	mov    %dl,0x6(%rsp)
     405:	48 b8 00 40 7a 10 f3 	movabs $0x5af3107a4000,%rax
     40c:	5a 00 00 
     40f:	48 39 c7             	cmp    %rax,%rdi
     412:	73 0f                	jae    0x423
     414:	48 8d 74 24 06       	lea    0x6(%rsp),%rsi
     419:	ba 0e 00 00 00       	mov    $0xe,%edx
     41e:	e9 7d 01 00 00       	jmp    0x5a0
     423:	48 b9 81 cd 95 50 c3 	movabs $0xb424dc35095cd81,%rcx
     42a:	4d 42 0b 
     42d:	48 89 f8             	mov    %rdi,%rax
     430:	48 f7 e1             	mul    %rcx
     433:	48 c1 ea 2a          	shr    $0x2a,%rdx
     437:	48 69 c2 9a 99 99 19 	imul   $0x1999999a,%rdx,%rax
     43e:	48 c1 e8 20          	shr    $0x20,%rax
     442:	01 c0                	add    %eax,%eax
     444:	8d 04 80             	lea    (%rax,%rax,4),%eax
     447:	29 c2                	sub    %eax,%edx
     449:	80 ca 30             	or     $0x30,%dl
     44c:	88 54 24 05          	mov    %dl,0x5(%rsp)
     450:	48 b8 00 80 c6 a4 7e 	movabs $0x38d7ea4c68000,%rax
     457:	8d 03 00 
     45a:	48 39 c7             	cmp    %rax,%rdi
     45d:	73 0f                	jae    0x46e
     45f:	48 8d 74 24 05       	lea    0x5(%rsp),%rsi
     464:	ba 0f 00 00 00       	mov    $0xf,%edx
     469:	e9 32 01 00 00       	jmp    0x5a0
     46e:	48 89 f8             	mov    %rdi,%rax
     471:	48 c1 e8 0f          	shr    $0xf,%rax
     475:	48 b9 c3 ea dc f3 75 	movabs $0x24075f3dceac3,%rcx
     47c:	40 02 00 
     47f:	48 f7 e1             	mul    %rcx
     482:	48 c1 ea 14          	shr    $0x14,%rdx
     486:	69 c2 67 66 00 00    	imul   $0x6667,%edx,%eax
     48c:	c1 e8 11             	shr    $0x11,%eax
     48f:	83 e0 fe             	and    $0xfffffffe,%eax
     492:	8d 04 80             	lea    (%rax,%rax,4),%eax
     495:	29 c2                	sub    %eax,%edx
     497:	80 ca 30             	or     $0x30,%dl
     49a:	88 54 24 04          	mov    %dl,0x4(%rsp)
     49e:	48 b8 00 00 c1 6f f2 	movabs $0x2386f26fc10000,%rax
     4a5:	86 23 00 
     4a8:	48 39 c7             	cmp    %rax,%rdi
     4ab:	73 0f                	jae    0x4bc
     4ad:	48 8d 74 24 04       	lea    0x4(%rsp),%rsi
     4b2:	ba 10 00 00 00       	mov    $0x10,%edx
     4b7:	e9 e4 00 00 00       	jmp    0x5a0
     4bc:	48 b9 57 78 13 b1 2f 	movabs $0x39a5652fb1137857,%rcx
     4c3:	65 a5 39 
     4c6:	48 89 f8             	mov    %rdi,%rax
     4c9:	48 f7 e1             	mul    %rcx
     4cc:	48 c1 ea 33          	shr    $0x33,%rdx
     4d0:	69 c2 9a 19 00 00    	imul   $0x199a,%edx,%eax
     4d6:	c1 e8 0f             	shr    $0xf,%eax
     4d9:	83 e0 fe             	and    $0xfffffffe,%eax
     4dc:	8d 04 80             	lea    (%rax,%rax,4),%eax
     4df:	29 c2                	sub    %eax,%edx
     4e1:	80 ca 30             	or     $0x30,%dl
     4e4:	88 54 24 03          	mov    %dl,0x3(%rsp)
     4e8:	48 b8 00 00 8a 5d 78 	movabs $0x16345785d8a0000,%rax
     4ef:	45 63 01 
     4f2:	48 39 c7             	cmp    %rax,%rdi
     4f5:	73 0f                	jae    0x506
     4f7:	48 8d 74 24 03       	lea    0x3(%rsp),%rsi
     4fc:	ba 11 00 00 00       	mov    $0x11,%edx
     501:	e9 9a 00 00 00       	jmp    0x5a0
     506:	48 89 f8             	mov    %rdi,%rax
     509:	48 c1 e8 11          	shr    $0x11,%rax
     50d:	48 b9 53 1b 19 d5 3b 	movabs $0x5c3bd5191b53,%rcx
     514:	5c 00 00 
     517:	48 f7 e1             	mul    %rcx
     51a:	c1 ea 16             	shr    $0x16,%edx
     51d:	69 c2 cd 00 00 00    	imul   $0xcd,%edx,%eax
     523:	c1 e8 0a             	shr    $0xa,%eax
     526:	83 e0 fe             	and    $0xfffffffe,%eax
     529:	8d 04 80             	lea    (%rax,%rax,4),%eax
     52c:	28 c2                	sub    %al,%dl
     52e:	80 ca 30             	or     $0x30,%dl
     531:	88 54 24 02          	mov    %dl,0x2(%rsp)
     535:	48 b8 00 00 64 a7 b3 	movabs $0xde0b6b3a7640000,%rax
     53c:	b6 e0 0d 
     53f:	48 39 c7             	cmp    %rax,%rdi
     542:	73 0c                	jae    0x550
     544:	48 8d 74 24 02       	lea    0x2(%rsp),%rsi
     549:	ba 12 00 00 00       	mov    $0x12,%edx
     54e:	eb 50                	jmp    0x5a0
     550:	48 89 f8             	mov    %rdi,%rax
     553:	48 c1 e8 12          	shr    $0x12,%rax
     557:	48 b9 0f 49 47 77 c9 	movabs $0x49c97747490f,%rcx
     55e:	49 00 00 
     561:	48 f7 e1             	mul    %rcx
     564:	c1 ea 18             	shr    $0x18,%edx
     567:	8d 42 f6             	lea    -0xa(%rdx),%eax
     56a:	48 b9 00 00 e8 89 04 	movabs $0x8ac7230489e80000,%rcx
     571:	23 c7 8a 
     574:	48 39 cf             	cmp    %rcx,%rdi
     577:	0f b6 c0             	movzbl %al,%eax
     57a:	0f 42 c2             	cmovb  %edx,%eax
     57d:	0c 30                	or     $0x30,%al
     57f:	88 44 24 01          	mov    %al,0x1(%rsp)
     583:	48 39 cf             	cmp    %rcx,%rdi
     586:	73 0c                	jae    0x594
     588:	48 8d 74 24 01       	lea    0x1(%rsp),%rsi
     58d:	ba 13 00 00 00       	mov    $0x13,%edx
     592:	eb 0c                	jmp    0x5a0
     594:	c6 04 24 31          	movb   $0x31,(%rsp)
     598:	48 89 e6             	mov    %rsp,%rsi
     59b:	ba 14 00 00 00       	mov    $0x14,%edx
     5a0:	48 8d 7c 24 18       	lea    0x18(%rsp),%rdi
     5a5:	ff 15 6d 52 00 00    	call   *0x526d(%rip)        # 0x5818
     5ab:	80 7c 24 18 00       	cmpb   $0x0,0x18(%rsp)
     5b0:	48 0f 44 5c 24 28    	cmove  0x28(%rsp),%rbx
     5b6:	48 8d 3d 4f 40 00 00 	lea    0x404f(%rip),%rdi        # 0x460c
     5bd:	48 0f 44 7c 24 20    	cmove  0x20(%rsp),%rdi
     5c3:	31 c0                	xor    %eax,%eax
     5c5:	48 89 de             	mov    %rbx,%rsi
     5c8:	0f 05                	syscall
     5ca:	48 83 c4 30          	add    $0x30,%rsp
     5ce:	5b                   	pop    %rbx
     5cf:	c3                   	ret
     5d0:	55                   	push   %rbp
     5d1:	41 57                	push   %r15
     5d3:	41 56                	push   %r14
     5d5:	41 55                	push   %r13
     5d7:	41 54                	push   %r12
     5d9:	53                   	push   %rbx
     5da:	48 81 ec f8 06 00 00 	sub    $0x6f8,%rsp
     5e1:	48 8d 3d 9b 44 00 00 	lea    0x449b(%rip),%rdi        # 0x4a83
     5e8:	be 9f 00 00 00       	mov    $0x9f,%esi
     5ed:	31 c0                	xor    %eax,%eax
     5ef:	0f 05                	syscall
     5f1:	48 c7 84 24 e8 00 00 	movq   $0x0,0xe8(%rsp)
     5f8:	00 00 00 00 00 
     5fd:	48 c7 84 24 08 01 00 	movq   $0x0,0x108(%rsp)
     604:	00 00 00 00 00 
     609:	48 c7 84 24 28 01 00 	movq   $0x0,0x128(%rsp)
     610:	00 00 00 00 00 
     615:	48 c7 84 24 48 01 00 	movq   $0x0,0x148(%rsp)
     61c:	00 00 00 00 00 
     621:	48 c7 84 24 68 01 00 	movq   $0x0,0x168(%rsp)
     628:	00 00 00 00 00 
     62d:	48 c7 84 24 88 01 00 	movq   $0x0,0x188(%rsp)
     634:	00 00 00 00 00 
     639:	48 c7 84 24 a8 01 00 	movq   $0x0,0x1a8(%rsp)
     640:	00 00 00 00 00 
     645:	48 c7 84 24 c8 01 00 	movq   $0x0,0x1c8(%rsp)
     64c:	00 00 00 00 00 
     651:	48 c7 84 24 e8 01 00 	movq   $0x0,0x1e8(%rsp)
     658:	00 00 00 00 00 
     65d:	48 c7 84 24 08 02 00 	movq   $0x0,0x208(%rsp)
     664:	00 00 00 00 00 
     669:	48 c7 84 24 28 02 00 	movq   $0x0,0x228(%rsp)
     670:	00 00 00 00 00 
     675:	48 c7 84 24 48 02 00 	movq   $0x0,0x248(%rsp)
     67c:	00 00 00 00 00 
     681:	48 c7 84 24 68 02 00 	movq   $0x0,0x268(%rsp)
     688:	00 00 00 00 00 
     68d:	48 c7 84 24 88 02 00 	movq   $0x0,0x288(%rsp)
     694:	00 00 00 00 00 
     699:	48 c7 84 24 a8 02 00 	movq   $0x0,0x2a8(%rsp)
     6a0:	00 00 00 00 00 
     6a5:	48 c7 84 24 c8 02 00 	movq   $0x0,0x2c8(%rsp)
     6ac:	00 00 00 00 00 
     6b1:	48 c7 84 24 e8 02 00 	movq   $0x0,0x2e8(%rsp)
     6b8:	00 00 00 00 00 
     6bd:	48 c7 84 24 f0 02 00 	movq   $0x0,0x2f0(%rsp)
     6c4:	00 00 00 00 00 
     6c9:	48 8d 2d a5 43 00 00 	lea    0x43a5(%rip),%rbp        # 0x4a75
     6d0:	31 db                	xor    %ebx,%ebx
     6d2:	45 31 f6             	xor    %r14d,%r14d
     6d5:	eb 20                	jmp    0x6f7
     6d7:	66 0f 1f 84 00 00 00 	nopw   0x0(%rax,%rax,1)
     6de:	00 00 
     6e0:	48 8b 9c 24 e8 02 00 	mov    0x2e8(%rsp),%rbx
     6e7:	00 
     6e8:	4c 8b b4 24 f0 02 00 	mov    0x2f0(%rsp),%r14
     6ef:	00 
     6f0:	48 8d 2d 7e 43 00 00 	lea    0x437e(%rip),%rbp        # 0x4a75
     6f7:	be 02 00 00 00       	mov    $0x2,%esi
     6fc:	31 c0                	xor    %eax,%eax
     6fe:	48 8d 3d 1d 44 00 00 	lea    0x441d(%rip),%rdi        # 0x4b22
     705:	0f 05                	syscall
     707:	b8 00 01 00 00       	mov    $0x100,%eax
     70c:	48 89 44 24 10       	mov    %rax,0x10(%rsp)
     711:	b8 01 00 00 00       	mov    $0x1,%eax
     716:	bf 00 01 00 00       	mov    $0x100,%edi
     71b:	be 01 00 00 00       	mov    $0x1,%esi
     720:	0f 05                	syscall
     722:	48 89 44 24 08       	mov    %rax,0x8(%rsp)
     727:	4a 8d 04 33          	lea    (%rbx,%r14,1),%rax
     72b:	48 ff c0             	inc    %rax
     72e:	48 89 84 24 c0 00 00 	mov    %rax,0xc0(%rsp)
     735:	00 
     736:	4c 89 74 24 38       	mov    %r14,0x38(%rsp)
     73b:	4c 01 f3             	add    %r14,%rbx
     73e:	48 89 9c 24 c8 00 00 	mov    %rbx,0xc8(%rsp)
     745:	00 
     746:	e9 01 09 00 00       	jmp    0x104c
     74b:	0f 1f 44 00 00       	nopl   0x0(%rax,%rax,1)
     750:	45 31 ff             	xor    %r15d,%r15d
     753:	31 db                	xor    %ebx,%ebx
     755:	66 66 2e 0f 1f 84 00 	data16 cs nopw 0x0(%rax,%rax,1)
     75c:	00 00 00 00 
     760:	49 89 dc             	mov    %rbx,%r12
     763:	49 89 cd             	mov    %rcx,%r13
     766:	b8 06 00 00 00       	mov    $0x6,%eax
     76b:	0f 05                	syscall
     76d:	b8 08 00 00 00       	mov    $0x8,%eax
     772:	0f 05                	syscall
     774:	49 89 c6             	mov    %rax,%r14
     777:	48 3d ff f6 00 00    	cmp    $0xf6ff,%rax
     77d:	0f 8f 7d 00 00 00    	jg     0x800
     783:	49 83 fe 08          	cmp    $0x8,%r14
     787:	0f 84 ab 01 00 00    	je     0x938
     78d:	49 83 fe 1b          	cmp    $0x1b,%r14
     791:	0f 85 58 02 00 00    	jne    0x9ef
     797:	be 0b 00 00 00       	mov    $0xb,%esi
     79c:	31 c0                	xor    %eax,%eax
     79e:	48 89 ef             	mov    %rbp,%rdi
     7a1:	0f 05                	syscall
     7a3:	4d 85 ed             	test   %r13,%r13
     7a6:	48 8d 3d d3 42 00 00 	lea    0x42d3(%rip),%rdi        # 0x4a80
     7ad:	74 0f                	je     0x7be
     7af:	90                   	nop
     7b0:	be 03 00 00 00       	mov    $0x3,%esi
     7b5:	31 c0                	xor    %eax,%eax
     7b7:	0f 05                	syscall
     7b9:	49 ff cd             	dec    %r13
     7bc:	75 f2                	jne    0x7b0
     7be:	b9 00 00 00 00       	mov    $0x0,%ecx
     7c3:	bb 00 00 00 00       	mov    $0x0,%ebx
     7c8:	49 83 ff 01          	cmp    $0x1,%r15
     7cc:	41 bf 00 00 00 00    	mov    $0x0,%r15d
     7d2:	75 8c                	jne    0x760
     7d4:	b9 00 00 00 00       	mov    $0x0,%ecx
     7d9:	41 bf 00 00 00 00    	mov    $0x0,%r15d
     7df:	bb 00 00 00 00       	mov    $0x0,%ebx
     7e4:	48 83 7c 24 18 00    	cmpq   $0x0,0x18(%rsp)
     7ea:	0f 85 50 08 00 00    	jne    0x1040
     7f0:	e9 6b ff ff ff       	jmp    0x760
     7f5:	66 66 2e 0f 1f 84 00 	data16 cs nopw 0x0(%rax,%rax,1)
     7fc:	00 00 00 00 
     800:	49 81 fe 00 f7 00 00 	cmp    $0xf700,%r14
     807:	0f 84 63 01 00 00    	je     0x970
     80d:	49 81 fe 01 f7 00 00 	cmp    $0xf701,%r14
     814:	0f 85 f5 01 00 00    	jne    0xa0f
     81a:	be 0b 00 00 00       	mov    $0xb,%esi
     81f:	31 c0                	xor    %eax,%eax
     821:	48 89 ef             	mov    %rbp,%rdi
     824:	0f 05                	syscall
     826:	4d 85 e4             	test   %r12,%r12
     829:	0f 84 cd 00 00 00    	je     0x8fc
     82f:	4d 85 ed             	test   %r13,%r13
     832:	48 8d 3d 47 42 00 00 	lea    0x4247(%rip),%rdi        # 0x4a80
     839:	74 13                	je     0x84e
     83b:	0f 1f 44 00 00       	nopl   0x0(%rax,%rax,1)
     840:	be 03 00 00 00       	mov    $0x3,%esi
     845:	31 c0                	xor    %eax,%eax
     847:	0f 05                	syscall
     849:	49 ff cd             	dec    %r13
     84c:	75 f2                	jne    0x840
     84e:	4c 89 e3             	mov    %r12,%rbx
     851:	b9 00 00 00 00       	mov    $0x0,%ecx
     856:	48 ff cb             	dec    %rbx
     859:	0f 84 46 02 00 00    	je     0xaa5
     85f:	48 3b 5c 24 38       	cmp    0x38(%rsp),%rbx
     864:	0f 87 f6 fe ff ff    	ja     0x760
     86a:	48 8b 84 24 c0 00 00 	mov    0xc0(%rsp),%rax
     871:	00 
     872:	44 29 e0             	sub    %r12d,%eax
     875:	83 e0 0f             	and    $0xf,%eax
     878:	c1 e0 05             	shl    $0x5,%eax
     87b:	83 bc 04 e8 00 00 00 	cmpl   $0x1,0xe8(%rsp,%rax,1)
     882:	01 
     883:	b9 00 00 00 00       	mov    $0x0,%ecx
     888:	0f 85 d2 fe ff ff    	jne    0x760
     88e:	4c 89 7c 24 20       	mov    %r15,0x20(%rsp)
     893:	48 01 e0             	add    %rsp,%rax
     896:	48 05 e8 00 00 00    	add    $0xe8,%rax
     89c:	48 8b 70 08          	mov    0x8(%rax),%rsi
     8a0:	48 85 f6             	test   %rsi,%rsi
     8a3:	48 8b 50 10          	mov    0x10(%rax),%rdx
     8a7:	48 0f 44 d6          	cmove  %rsi,%rdx
     8ab:	41 be 01 00 00 00    	mov    $0x1,%r14d
     8b1:	49 0f 44 f6          	cmove  %r14,%rsi
     8b5:	48 8d bc 24 f8 02 00 	lea    0x2f8(%rsp),%rdi
     8bc:	00 
     8bd:	ff 15 55 4f 00 00    	call   *0x4f55(%rip)        # 0x5818
     8c3:	80 bc 24 f8 02 00 00 	cmpb   $0x0,0x2f8(%rsp)
     8ca:	00 
     8cb:	0f 85 55 03 00 00    	jne    0xc26
     8d1:	48 8b 8c 24 08 03 00 	mov    0x308(%rsp),%rcx
     8d8:	00 
     8d9:	4c 8b b4 24 00 03 00 	mov    0x300(%rsp),%r14
     8e0:	00 
     8e1:	e9 42 03 00 00       	jmp    0xc28
     8e6:	66 2e 0f 1f 84 00 00 	cs nopw 0x0(%rax,%rax,1)
     8ed:	00 00 00 
     8f0:	be 0b 00 00 00       	mov    $0xb,%esi
     8f5:	31 c0                	xor    %eax,%eax
     8f7:	48 89 ef             	mov    %rbp,%rdi
     8fa:	0f 05                	syscall
     8fc:	b8 06 00 00 00       	mov    $0x6,%eax
     901:	0f 05                	syscall
     903:	b8 08 00 00 00       	mov    $0x8,%eax
     908:	0f 05                	syscall
     90a:	48 3d 01 f7 00 00    	cmp    $0xf701,%rax
     910:	74 de                	je     0x8f0
     912:	49 89 c6             	mov    %rax,%r14
     915:	48 83 f8 1a          	cmp    $0x1a,%rax
     919:	0f 8f e7 01 00 00    	jg     0xb06
     91f:	49 83 fe 08          	cmp    $0x8,%r14
     923:	0f 84 a9 02 00 00    	je     0xbd2
     929:	49 83 fe 0a          	cmp    $0xa,%r14
     92d:	0f 84 2d 07 00 00    	je     0x1060
     933:	e9 82 02 00 00       	jmp    0xbba
     938:	4c 89 e3             	mov    %r12,%rbx
     93b:	be 0b 00 00 00       	mov    $0xb,%esi
     940:	31 c0                	xor    %eax,%eax
     942:	48 89 ef             	mov    %rbp,%rdi
     945:	0f 05                	syscall
     947:	b9 00 00 00 00       	mov    $0x0,%ecx
     94c:	4d 85 ed             	test   %r13,%r13
     94f:	0f 84 0b fe ff ff    	je     0x760
     955:	49 ff cd             	dec    %r13
     958:	be 03 00 00 00       	mov    $0x3,%esi
     95d:	31 c0                	xor    %eax,%eax
     95f:	48 8d 3d 1a 41 00 00 	lea    0x411a(%rip),%rdi        # 0x4a80
     966:	0f 05                	syscall
     968:	4c 89 e9             	mov    %r13,%rcx
     96b:	e9 f0 fd ff ff       	jmp    0x760
     970:	be 0b 00 00 00       	mov    $0xb,%esi
     975:	31 c0                	xor    %eax,%eax
     977:	48 89 ef             	mov    %rbp,%rdi
     97a:	0f 05                	syscall
     97c:	4c 89 e0             	mov    %r12,%rax
     97f:	48 c7 c3 ff ff ff ff 	mov    $0xffffffffffffffff,%rbx
     986:	4c 89 e9             	mov    %r13,%rcx
     989:	48 ff c0             	inc    %rax
     98c:	0f 84 ce fd ff ff    	je     0x760
     992:	4c 89 e9             	mov    %r13,%rcx
     995:	4c 89 e3             	mov    %r12,%rbx
     998:	48 3b 44 24 38       	cmp    0x38(%rsp),%rax
     99d:	0f 87 bd fd ff ff    	ja     0x760
     9a3:	45 89 e6             	mov    %r12d,%r14d
     9a6:	41 f7 d6             	not    %r14d
     9a9:	44 03 b4 24 c8 00 00 	add    0xc8(%rsp),%r14d
     9b0:	00 
     9b1:	41 83 e6 0f          	and    $0xf,%r14d
     9b5:	41 c1 e6 05          	shl    $0x5,%r14d
     9b9:	42 83 bc 34 e8 00 00 	cmpl   $0x1,0xe8(%rsp,%r14,1)
     9c0:	00 01 
     9c2:	4c 89 e9             	mov    %r13,%rcx
     9c5:	4c 89 e3             	mov    %r12,%rbx
     9c8:	0f 85 92 fd ff ff    	jne    0x760
     9ce:	48 89 44 24 28       	mov    %rax,0x28(%rsp)
     9d3:	4d 85 e4             	test   %r12,%r12
     9d6:	0f 84 fd 01 00 00    	je     0xbd9
     9dc:	4d 85 ed             	test   %r13,%r13
     9df:	4c 8b 64 24 30       	mov    0x30(%rsp),%r12
     9e4:	0f 85 ca 04 00 00    	jne    0xeb4
     9ea:	e9 df 04 00 00       	jmp    0xece
     9ef:	4c 89 e3             	mov    %r12,%rbx
     9f2:	49 83 fe 0a          	cmp    $0xa,%r14
     9f6:	0f 84 64 06 00 00    	je     0x1060
     9fc:	49 8d 46 e0          	lea    -0x20(%r14),%rax
     a00:	4c 89 e9             	mov    %r13,%rcx
     a03:	48 83 f8 5f          	cmp    $0x5f,%rax
     a07:	0f 83 53 fd ff ff    	jae    0x760
     a0d:	eb 14                	jmp    0xa23
     a0f:	4c 89 e3             	mov    %r12,%rbx
     a12:	49 8d 46 e0          	lea    -0x20(%r14),%rax
     a16:	4c 89 e9             	mov    %r13,%rcx
     a19:	48 83 f8 5f          	cmp    $0x5f,%rax
     a1d:	0f 83 3d fd ff ff    	jae    0x760
     a23:	be 0b 00 00 00       	mov    $0xb,%esi
     a28:	31 c0                	xor    %eax,%eax
     a2a:	48 89 ef             	mov    %rbp,%rdi
     a2d:	0f 05                	syscall
     a2f:	4c 89 e9             	mov    %r13,%rcx
     a32:	49 81 fd ff 00 00 00 	cmp    $0xff,%r13
     a39:	0f 87 21 fd ff ff    	ja     0x760
     a3f:	4c 89 7c 24 20       	mov    %r15,0x20(%rsp)
     a44:	4c 8b 64 24 10       	mov    0x10(%rsp),%r12
     a49:	4d 39 e5             	cmp    %r12,%r13
     a4c:	0f 85 f5 00 00 00    	jne    0xb47
     a52:	4f 8d 3c 24          	lea    (%r12,%r12,1),%r15
     a56:	4d 85 e4             	test   %r12,%r12
     a59:	b8 40 00 00 00       	mov    $0x40,%eax
     a5e:	4c 0f 44 f8          	cmove  %rax,%r15
     a62:	b8 01 00 00 00       	mov    $0x1,%eax
     a67:	be 01 00 00 00       	mov    $0x1,%esi
     a6c:	4c 89 ff             	mov    %r15,%rdi
     a6f:	0f 05                	syscall
     a71:	48 8b 74 24 08       	mov    0x8(%rsp),%rsi
     a76:	48 85 f6             	test   %rsi,%rsi
     a79:	0f 84 d0 00 00 00    	je     0xb4f
     a7f:	48 89 c7             	mov    %rax,%rdi
     a82:	4c 89 e2             	mov    %r12,%rdx
     a85:	48 89 04 24          	mov    %rax,(%rsp)
     a89:	49 89 f4             	mov    %rsi,%r12
     a8c:	ff 15 8e 4d 00 00    	call   *0x4d8e(%rip)        # 0x5820
     a92:	b8 02 00 00 00       	mov    $0x2,%eax
     a97:	4c 89 e7             	mov    %r12,%rdi
     a9a:	0f 05                	syscall
     a9c:	48 8b 04 24          	mov    (%rsp),%rax
     aa0:	e9 aa 00 00 00       	jmp    0xb4f
     aa5:	bb 00 00 00 00       	mov    $0x0,%ebx
     aaa:	49 83 ff 01          	cmp    $0x1,%r15
     aae:	41 bf 00 00 00 00    	mov    $0x0,%r15d
     ab4:	0f 85 a6 fc ff ff    	jne    0x760
     aba:	48 8b 74 24 18       	mov    0x18(%rsp),%rsi
     abf:	48 85 f6             	test   %rsi,%rsi
     ac2:	48 8b 54 24 30       	mov    0x30(%rsp),%rdx
     ac7:	48 0f 44 d6          	cmove  %rsi,%rdx
     acb:	41 be 01 00 00 00    	mov    $0x1,%r14d
     ad1:	49 0f 44 f6          	cmove  %r14,%rsi
     ad5:	48 8d bc 24 f8 02 00 	lea    0x2f8(%rsp),%rdi
     adc:	00 
     add:	ff 15 35 4d 00 00    	call   *0x4d35(%rip)        # 0x5818
     ae3:	80 bc 24 f8 02 00 00 	cmpb   $0x0,0x2f8(%rsp)
     aea:	00 
     aeb:	0f 85 65 01 00 00    	jne    0xc56
     af1:	48 8b 8c 24 08 03 00 	mov    0x308(%rsp),%rcx
     af8:	00 
     af9:	4c 8b b4 24 00 03 00 	mov    0x300(%rsp),%r14
     b00:	00 
     b01:	e9 52 01 00 00       	jmp    0xc58
     b06:	49 83 fe 1b          	cmp    $0x1b,%r14
     b0a:	0f 84 87 fc ff ff    	je     0x797
     b10:	49 81 fe 00 f7 00 00 	cmp    $0xf700,%r14
     b17:	0f 85 9d 00 00 00    	jne    0xbba
     b1d:	be 0b 00 00 00       	mov    $0xb,%esi
     b22:	31 c0                	xor    %eax,%eax
     b24:	48 89 ef             	mov    %rbp,%rdi
     b27:	0f 05                	syscall
     b29:	b8 01 00 00 00       	mov    $0x1,%eax
     b2e:	45 31 e4             	xor    %r12d,%r12d
     b31:	4c 89 e9             	mov    %r13,%rcx
     b34:	4c 89 e3             	mov    %r12,%rbx
     b37:	48 3b 44 24 38       	cmp    0x38(%rsp),%rax
     b3c:	0f 87 1e fc ff ff    	ja     0x760
     b42:	e9 5c fe ff ff       	jmp    0x9a3
     b47:	4d 89 e7             	mov    %r12,%r15
     b4a:	48 8b 44 24 08       	mov    0x8(%rsp),%rax
     b4f:	48 89 44 24 08       	mov    %rax,0x8(%rsp)
     b54:	46 88 34 28          	mov    %r14b,(%rax,%r13,1)
     b58:	49 ff c5             	inc    %r13
     b5b:	44 88 74 24 40       	mov    %r14b,0x40(%rsp)
     b60:	ba 01 00 00 00       	mov    $0x1,%edx
     b65:	48 8d bc 24 f8 02 00 	lea    0x2f8(%rsp),%rdi
     b6c:	00 
     b6d:	48 8d 74 24 40       	lea    0x40(%rsp),%rsi
     b72:	ff 15 a0 4c 00 00    	call   *0x4ca0(%rip)        # 0x5818
     b78:	80 bc 24 f8 02 00 00 	cmpb   $0x0,0x2f8(%rsp)
     b7f:	00 
     b80:	48 8b b4 24 08 03 00 	mov    0x308(%rsp),%rsi
     b87:	00 
     b88:	b8 01 00 00 00       	mov    $0x1,%eax
     b8d:	48 0f 45 f0          	cmovne %rax,%rsi
     b91:	48 8b bc 24 00 03 00 	mov    0x300(%rsp),%rdi
     b98:	00 
     b99:	48 8d 05 6c 3a 00 00 	lea    0x3a6c(%rip),%rax        # 0x460c
     ba0:	48 0f 45 f8          	cmovne %rax,%rdi
     ba4:	31 c0                	xor    %eax,%eax
     ba6:	0f 05                	syscall
     ba8:	4c 89 7c 24 10       	mov    %r15,0x10(%rsp)
     bad:	4c 89 e9             	mov    %r13,%rcx
     bb0:	4c 8b 7c 24 20       	mov    0x20(%rsp),%r15
     bb5:	e9 a6 fb ff ff       	jmp    0x760
     bba:	31 db                	xor    %ebx,%ebx
     bbc:	49 8d 46 e0          	lea    -0x20(%r14),%rax
     bc0:	4c 89 e9             	mov    %r13,%rcx
     bc3:	48 83 f8 5f          	cmp    $0x5f,%rax
     bc7:	0f 83 93 fb ff ff    	jae    0x760
     bcd:	e9 51 fe ff ff       	jmp    0xa23
     bd2:	31 db                	xor    %ebx,%ebx
     bd4:	e9 62 fd ff ff       	jmp    0x93b
     bd9:	49 83 fd 01          	cmp    $0x1,%r13
     bdd:	4c 89 ef             	mov    %r13,%rdi
     be0:	48 83 d7 00          	adc    $0x0,%rdi
     be4:	41 bf 01 00 00 00    	mov    $0x1,%r15d
     bea:	b8 01 00 00 00       	mov    $0x1,%eax
     bef:	be 01 00 00 00       	mov    $0x1,%esi
     bf4:	0f 05                	syscall
     bf6:	48 89 c3             	mov    %rax,%rbx
     bf9:	4d 85 ed             	test   %r13,%r13
     bfc:	0f 84 2f 02 00 00    	je     0xe31
     c02:	48 8b 4c 24 08       	mov    0x8(%rsp),%rcx
     c07:	0f b6 01             	movzbl (%rcx),%eax
     c0a:	88 03                	mov    %al,(%rbx)
     c0c:	49 83 fd 01          	cmp    $0x1,%r13
     c10:	0f 85 28 02 00 00    	jne    0xe3e
     c16:	48 89 5c 24 18       	mov    %rbx,0x18(%rsp)
     c1b:	41 bc 01 00 00 00    	mov    $0x1,%r12d
     c21:	e9 8e 02 00 00       	jmp    0xeb4
     c26:	31 c9                	xor    %ecx,%ecx
     c28:	4c 8b 7c 24 08       	mov    0x8(%rsp),%r15
     c2d:	48 85 c9             	test   %rcx,%rcx
     c30:	48 8b 44 24 10       	mov    0x10(%rsp),%rax
     c35:	48 89 0c 24          	mov    %rcx,(%rsp)
     c39:	0f 84 86 00 00 00    	je     0xcc5
     c3f:	41 0f b6 2e          	movzbl (%r14),%ebp
     c43:	48 85 c0             	test   %rax,%rax
     c46:	74 46                	je     0xc8e
     c48:	41 88 2f             	mov    %bpl,(%r15)
     c4b:	48 83 f9 01          	cmp    $0x1,%rcx
     c4f:	74 74                	je     0xcc5
     c51:	e9 8d 00 00 00       	jmp    0xce3
     c56:	31 c9                	xor    %ecx,%ecx
     c58:	4c 8b 7c 24 08       	mov    0x8(%rsp),%r15
     c5d:	48 85 c9             	test   %rcx,%rcx
     c60:	48 8b 44 24 10       	mov    0x10(%rsp),%rax
     c65:	48 89 0c 24          	mov    %rcx,(%rsp)
     c69:	0f 84 1e 01 00 00    	je     0xd8d
     c6f:	41 0f b6 1e          	movzbl (%r14),%ebx
     c73:	48 85 c0             	test   %rax,%rax
     c76:	0f 84 da 00 00 00    	je     0xd56
     c7c:	41 88 1f             	mov    %bl,(%r15)
     c7f:	48 83 f9 01          	cmp    $0x1,%rcx
     c83:	0f 84 04 01 00 00    	je     0xd8d
     c89:	e9 3e 01 00 00       	jmp    0xdcc
     c8e:	b8 01 00 00 00       	mov    $0x1,%eax
     c93:	bf 40 00 00 00       	mov    $0x40,%edi
     c98:	be 01 00 00 00       	mov    $0x1,%esi
     c9d:	0f 05                	syscall
     c9f:	48 8b 7c 24 08       	mov    0x8(%rsp),%rdi
     ca4:	49 89 c7             	mov    %rax,%r15
     ca7:	48 85 ff             	test   %rdi,%rdi
     caa:	74 07                	je     0xcb3
     cac:	b8 02 00 00 00       	mov    $0x2,%eax
     cb1:	0f 05                	syscall
     cb3:	b8 40 00 00 00       	mov    $0x40,%eax
     cb8:	48 8b 0c 24          	mov    (%rsp),%rcx
     cbc:	41 88 2f             	mov    %bpl,(%r15)
     cbf:	48 83 f9 01          	cmp    $0x1,%rcx
     cc3:	75 1e                	jne    0xce3
     cc5:	48 89 44 24 10       	mov    %rax,0x10(%rsp)
     cca:	4c 89 7c 24 08       	mov    %r15,0x8(%rsp)
     ccf:	31 c0                	xor    %eax,%eax
     cd1:	4c 89 f7             	mov    %r14,%rdi
     cd4:	48 8b 34 24          	mov    (%rsp),%rsi
     cd8:	0f 05                	syscall
     cda:	48 8b 0c 24          	mov    (%rsp),%rcx
     cde:	e9 c0 02 00 00       	jmp    0xfa3
     ce3:	41 bc 01 00 00 00    	mov    $0x1,%r12d
     ce9:	bd 02 00 00 00       	mov    $0x2,%ebp
     cee:	4c 89 74 24 28       	mov    %r14,0x28(%rsp)
     cf3:	eb 1b                	jmp    0xd10
     cf5:	66 66 2e 0f 1f 84 00 	data16 cs nopw 0x0(%rax,%rax,1)
     cfc:	00 00 00 00 
     d00:	47 88 2c 27          	mov    %r13b,(%r15,%r12,1)
     d04:	49 ff c4             	inc    %r12
     d07:	48 83 c5 02          	add    $0x2,%rbp
     d0b:	4c 39 e1             	cmp    %r12,%rcx
     d0e:	74 b5                	je     0xcc5
     d10:	47 0f b6 2c 26       	movzbl (%r14,%r12,1),%r13d
     d15:	49 39 c4             	cmp    %rax,%r12
     d18:	75 e6                	jne    0xd00
     d1a:	b8 01 00 00 00       	mov    $0x1,%eax
     d1f:	be 01 00 00 00       	mov    $0x1,%esi
     d24:	48 89 ef             	mov    %rbp,%rdi
     d27:	0f 05                	syscall
     d29:	49 89 c6             	mov    %rax,%r14
     d2c:	48 89 c7             	mov    %rax,%rdi
     d2f:	4c 89 fe             	mov    %r15,%rsi
     d32:	4c 89 e2             	mov    %r12,%rdx
     d35:	ff 15 e5 4a 00 00    	call   *0x4ae5(%rip)        # 0x5820
     d3b:	b8 02 00 00 00       	mov    $0x2,%eax
     d40:	4c 89 ff             	mov    %r15,%rdi
     d43:	0f 05                	syscall
     d45:	48 8b 0c 24          	mov    (%rsp),%rcx
     d49:	48 89 e8             	mov    %rbp,%rax
     d4c:	4d 89 f7             	mov    %r14,%r15
     d4f:	4c 8b 74 24 28       	mov    0x28(%rsp),%r14
     d54:	eb aa                	jmp    0xd00
     d56:	b8 01 00 00 00       	mov    $0x1,%eax
     d5b:	bf 40 00 00 00       	mov    $0x40,%edi
     d60:	be 01 00 00 00       	mov    $0x1,%esi
     d65:	0f 05                	syscall
     d67:	48 8b 7c 24 08       	mov    0x8(%rsp),%rdi
     d6c:	49 89 c7             	mov    %rax,%r15
     d6f:	48 85 ff             	test   %rdi,%rdi
     d72:	74 07                	je     0xd7b
     d74:	b8 02 00 00 00       	mov    $0x2,%eax
     d79:	0f 05                	syscall
     d7b:	b8 40 00 00 00       	mov    $0x40,%eax
     d80:	48 8b 0c 24          	mov    (%rsp),%rcx
     d84:	41 88 1f             	mov    %bl,(%r15)
     d87:	48 83 f9 01          	cmp    $0x1,%rcx
     d8b:	75 3f                	jne    0xdcc
     d8d:	48 89 44 24 10       	mov    %rax,0x10(%rsp)
     d92:	4c 89 7c 24 08       	mov    %r15,0x8(%rsp)
     d97:	b8 00 00 00 00       	mov    $0x0,%eax
     d9c:	4c 89 f7             	mov    %r14,%rdi
     d9f:	48 8b 34 24          	mov    (%rsp),%rsi
     da3:	0f 05                	syscall
     da5:	48 8b 0c 24          	mov    (%rsp),%rcx
     da9:	41 bf 00 00 00 00    	mov    $0x0,%r15d
     daf:	bb 00 00 00 00       	mov    $0x0,%ebx
     db4:	48 83 7c 24 18 00    	cmpq   $0x0,0x18(%rsp)
     dba:	48 8d 2d b4 3c 00 00 	lea    0x3cb4(%rip),%rbp        # 0x4a75
     dc1:	0f 85 5a 02 00 00    	jne    0x1021
     dc7:	e9 94 f9 ff ff       	jmp    0x760
     dcc:	41 bc 01 00 00 00    	mov    $0x1,%r12d
     dd2:	bd 02 00 00 00       	mov    $0x2,%ebp
     dd7:	eb 17                	jmp    0xdf0
     dd9:	0f 1f 80 00 00 00 00 	nopl   0x0(%rax)
     de0:	43 88 1c 27          	mov    %bl,(%r15,%r12,1)
     de4:	49 ff c4             	inc    %r12
     de7:	48 83 c5 02          	add    $0x2,%rbp
     deb:	4c 39 e1             	cmp    %r12,%rcx
     dee:	74 9d                	je     0xd8d
     df0:	43 0f b6 1c 26       	movzbl (%r14,%r12,1),%ebx
     df5:	49 39 c4             	cmp    %rax,%r12
     df8:	75 e6                	jne    0xde0
     dfa:	b8 01 00 00 00       	mov    $0x1,%eax
     dff:	be 01 00 00 00       	mov    $0x1,%esi
     e04:	48 89 ef             	mov    %rbp,%rdi
     e07:	4d 89 fd             	mov    %r15,%r13
     e0a:	0f 05                	syscall
     e0c:	49 89 c7             	mov    %rax,%r15
     e0f:	48 89 c7             	mov    %rax,%rdi
     e12:	4c 89 ee             	mov    %r13,%rsi
     e15:	4c 89 e2             	mov    %r12,%rdx
     e18:	ff 15 02 4a 00 00    	call   *0x4a02(%rip)        # 0x5820
     e1e:	b8 02 00 00 00       	mov    $0x2,%eax
     e23:	4c 89 ef             	mov    %r13,%rdi
     e26:	0f 05                	syscall
     e28:	48 8b 0c 24          	mov    (%rsp),%rcx
     e2c:	48 89 e8             	mov    %rbp,%rax
     e2f:	eb af                	jmp    0xde0
     e31:	48 89 5c 24 18       	mov    %rbx,0x18(%rsp)
     e36:	45 31 e4             	xor    %r12d,%r12d
     e39:	e9 90 00 00 00       	jmp    0xece
     e3e:	4c 89 34 24          	mov    %r14,(%rsp)
     e42:	41 be 01 00 00 00    	mov    $0x1,%r14d
     e48:	41 bc 02 00 00 00    	mov    $0x2,%r12d
     e4e:	eb 10                	jmp    0xe60
     e50:	42 88 2c 33          	mov    %bpl,(%rbx,%r14,1)
     e54:	49 ff c6             	inc    %r14
     e57:	49 83 c4 02          	add    $0x2,%r12
     e5b:	4d 39 f5             	cmp    %r14,%r13
     e5e:	74 42                	je     0xea2
     e60:	42 0f b6 2c 31       	movzbl (%rcx,%r14,1),%ebp
     e65:	49 39 fe             	cmp    %rdi,%r14
     e68:	75 e6                	jne    0xe50
     e6a:	b8 01 00 00 00       	mov    $0x1,%eax
     e6f:	49 89 df             	mov    %rbx,%r15
     e72:	be 01 00 00 00       	mov    $0x1,%esi
     e77:	4c 89 e7             	mov    %r12,%rdi
     e7a:	0f 05                	syscall
     e7c:	48 89 c3             	mov    %rax,%rbx
     e7f:	48 89 c7             	mov    %rax,%rdi
     e82:	4c 89 fe             	mov    %r15,%rsi
     e85:	4c 89 f2             	mov    %r14,%rdx
     e88:	ff 15 92 49 00 00    	call   *0x4992(%rip)        # 0x5820
     e8e:	b8 02 00 00 00       	mov    $0x2,%eax
     e93:	4c 89 ff             	mov    %r15,%rdi
     e96:	0f 05                	syscall
     e98:	48 8b 4c 24 08       	mov    0x8(%rsp),%rcx
     e9d:	4c 89 e7             	mov    %r12,%rdi
     ea0:	eb ae                	jmp    0xe50
     ea2:	48 89 5c 24 18       	mov    %rbx,0x18(%rsp)
     ea7:	41 bf 01 00 00 00    	mov    $0x1,%r15d
     ead:	4d 89 ec             	mov    %r13,%r12
     eb0:	4c 8b 34 24          	mov    (%rsp),%r14
     eb4:	48 8d 3d c5 3b 00 00 	lea    0x3bc5(%rip),%rdi        # 0x4a80
     ebb:	0f 1f 44 00 00       	nopl   0x0(%rax,%rax,1)
     ec0:	be 03 00 00 00       	mov    $0x3,%esi
     ec5:	31 c0                	xor    %eax,%eax
     ec7:	0f 05                	syscall
     ec9:	49 ff cd             	dec    %r13
     ecc:	75 f2                	jne    0xec0
     ece:	4a 8d 04 34          	lea    (%rsp,%r14,1),%rax
     ed2:	48 05 e8 00 00 00    	add    $0xe8,%rax
     ed8:	48 8b 70 08          	mov    0x8(%rax),%rsi
     edc:	48 85 f6             	test   %rsi,%rsi
     edf:	48 8b 50 10          	mov    0x10(%rax),%rdx
     ee3:	48 0f 44 d6          	cmove  %rsi,%rdx
     ee7:	41 be 01 00 00 00    	mov    $0x1,%r14d
     eed:	49 0f 44 f6          	cmove  %r14,%rsi
     ef1:	48 8d bc 24 f8 02 00 	lea    0x2f8(%rsp),%rdi
     ef8:	00 
     ef9:	ff 15 19 49 00 00    	call   *0x4919(%rip)        # 0x5818
     eff:	80 bc 24 f8 02 00 00 	cmpb   $0x0,0x2f8(%rsp)
     f06:	00 
     f07:	4c 89 7c 24 20       	mov    %r15,0x20(%rsp)
     f0c:	75 12                	jne    0xf20
     f0e:	48 8b 8c 24 08 03 00 	mov    0x308(%rsp),%rcx
     f15:	00 
     f16:	4c 8b b4 24 00 03 00 	mov    0x300(%rsp),%r14
     f1d:	00 
     f1e:	eb 02                	jmp    0xf22
     f20:	31 c9                	xor    %ecx,%ecx
     f22:	48 8b 44 24 10       	mov    0x10(%rsp),%rax
     f27:	48 85 c9             	test   %rcx,%rcx
     f2a:	4c 8b 7c 24 08       	mov    0x8(%rsp),%r15
     f2f:	48 89 0c 24          	mov    %rcx,(%rsp)
     f33:	4c 89 64 24 30       	mov    %r12,0x30(%rsp)
     f38:	74 4b                	je     0xf85
     f3a:	41 0f b6 1e          	movzbl (%r14),%ebx
     f3e:	48 85 c0             	test   %rax,%rax
     f41:	74 0b                	je     0xf4e
     f43:	41 88 1f             	mov    %bl,(%r15)
     f46:	48 83 f9 01          	cmp    $0x1,%rcx
     f4a:	74 39                	je     0xf85
     f4c:	eb 66                	jmp    0xfb4
     f4e:	b8 01 00 00 00       	mov    $0x1,%eax
     f53:	bf 40 00 00 00       	mov    $0x40,%edi
     f58:	be 01 00 00 00       	mov    $0x1,%esi
     f5d:	0f 05                	syscall
     f5f:	48 8b 7c 24 08       	mov    0x8(%rsp),%rdi
     f64:	49 89 c7             	mov    %rax,%r15
     f67:	48 85 ff             	test   %rdi,%rdi
     f6a:	74 07                	je     0xf73
     f6c:	b8 02 00 00 00       	mov    $0x2,%eax
     f71:	0f 05                	syscall
     f73:	b8 40 00 00 00       	mov    $0x40,%eax
     f78:	48 8b 0c 24          	mov    (%rsp),%rcx
     f7c:	41 88 1f             	mov    %bl,(%r15)
     f7f:	48 83 f9 01          	cmp    $0x1,%rcx
     f83:	75 2f                	jne    0xfb4
     f85:	48 89 44 24 10       	mov    %rax,0x10(%rsp)
     f8a:	4c 89 7c 24 08       	mov    %r15,0x8(%rsp)
     f8f:	31 c0                	xor    %eax,%eax
     f91:	4c 89 f7             	mov    %r14,%rdi
     f94:	48 8b 34 24          	mov    (%rsp),%rsi
     f98:	0f 05                	syscall
     f9a:	48 8b 0c 24          	mov    (%rsp),%rcx
     f9e:	48 8b 5c 24 28       	mov    0x28(%rsp),%rbx
     fa3:	48 8d 2d cb 3a 00 00 	lea    0x3acb(%rip),%rbp        # 0x4a75
     faa:	4c 8b 7c 24 20       	mov    0x20(%rsp),%r15
     faf:	e9 ac f7 ff ff       	jmp    0x760
     fb4:	41 bc 01 00 00 00    	mov    $0x1,%r12d
     fba:	bd 02 00 00 00       	mov    $0x2,%ebp
     fbf:	eb 1f                	jmp    0xfe0
     fc1:	66 66 66 66 66 66 2e 	data16 data16 data16 data16 data16 cs nopw 0x0(%rax,%rax,1)
     fc8:	0f 1f 84 00 00 00 00 
     fcf:	00 
     fd0:	43 88 1c 27          	mov    %bl,(%r15,%r12,1)
     fd4:	49 ff c4             	inc    %r12
     fd7:	48 83 c5 02          	add    $0x2,%rbp
     fdb:	4c 39 e1             	cmp    %r12,%rcx
     fde:	74 a5                	je     0xf85
     fe0:	43 0f b6 1c 26       	movzbl (%r14,%r12,1),%ebx
     fe5:	49 39 c4             	cmp    %rax,%r12
     fe8:	75 e6                	jne    0xfd0
     fea:	b8 01 00 00 00       	mov    $0x1,%eax
     fef:	be 01 00 00 00       	mov    $0x1,%esi
     ff4:	48 89 ef             	mov    %rbp,%rdi
     ff7:	4d 89 fd             	mov    %r15,%r13
     ffa:	0f 05                	syscall
     ffc:	49 89 c7             	mov    %rax,%r15
     fff:	48 89 c7             	mov    %rax,%rdi
    1002:	4c 89 ee             	mov    %r13,%rsi
    1005:	4c 89 e2             	mov    %r12,%rdx
    1008:	ff 15 12 48 00 00    	call   *0x4812(%rip)        # 0x5820
    100e:	b8 02 00 00 00       	mov    $0x2,%eax
    1013:	4c 89 ef             	mov    %r13,%rdi
    1016:	0f 05                	syscall
    1018:	48 8b 0c 24          	mov    (%rsp),%rcx
    101c:	48 89 e8             	mov    %rbp,%rax
    101f:	eb af                	jmp    0xfd0
    1021:	b8 02 00 00 00       	mov    $0x2,%eax
    1026:	48 8b 7c 24 18       	mov    0x18(%rsp),%rdi
    102b:	0f 05                	syscall
    102d:	48 8b 0c 24          	mov    (%rsp),%rcx
    1031:	e9 1a f7 ff ff       	jmp    0x750
    1036:	66 2e 0f 1f 84 00 00 	cs nopw 0x0(%rax,%rax,1)
    103d:	00 00 00 
    1040:	b8 02 00 00 00       	mov    $0x2,%eax
    1045:	48 8b 7c 24 18       	mov    0x18(%rsp),%rdi
    104a:	0f 05                	syscall
    104c:	31 c9                	xor    %ecx,%ecx
    104e:	e9 fd f6 ff ff       	jmp    0x750
    1053:	66 66 66 66 2e 0f 1f 	data16 data16 data16 cs nopw 0x0(%rax,%rax,1)
    105a:	84 00 00 00 00 00 
    1060:	be 0b 00 00 00       	mov    $0xb,%esi
    1065:	31 c0                	xor    %eax,%eax
    1067:	48 89 ef             	mov    %rbp,%rdi
    106a:	0f 05                	syscall
    106c:	be 01 00 00 00       	mov    $0x1,%esi
    1071:	31 c0                	xor    %eax,%eax
    1073:	48 8d 3d 72 32 00 00 	lea    0x3272(%rip),%rdi        # 0x42ec
    107a:	0f 05                	syscall
    107c:	49 83 ff 01          	cmp    $0x1,%r15
    1080:	48 8b 7c 24 18       	mov    0x18(%rsp),%rdi
    1085:	75 0c                	jne    0x1093
    1087:	48 85 ff             	test   %rdi,%rdi
    108a:	74 07                	je     0x1093
    108c:	b8 02 00 00 00       	mov    $0x2,%eax
    1091:	0f 05                	syscall
    1093:	48 8b 74 24 08       	mov    0x8(%rsp),%rsi
    1098:	48 85 f6             	test   %rsi,%rsi
    109b:	4c 89 ea             	mov    %r13,%rdx
    109e:	48 0f 44 d6          	cmove  %rsi,%rdx
    10a2:	bb 01 00 00 00       	mov    $0x1,%ebx
    10a7:	48 0f 44 f3          	cmove  %rbx,%rsi
    10ab:	48 8d bc 24 f8 02 00 	lea    0x2f8(%rsp),%rdi
    10b2:	00 
    10b3:	ff 15 5f 47 00 00    	call   *0x475f(%rip)        # 0x5818
    10b9:	0f b6 84 24 f8 02 00 	movzbl 0x2f8(%rsp),%eax
    10c0:	00 
    10c1:	48 8b 8c 24 00 03 00 	mov    0x300(%rsp),%rcx
    10c8:	00 
    10c9:	84 c0                	test   %al,%al
    10cb:	49 89 cc             	mov    %rcx,%r12
    10ce:	4c 0f 45 e3          	cmovne %rbx,%r12
    10d2:	4c 8b b4 24 08 03 00 	mov    0x308(%rsp),%r14
    10d9:	00 
    10da:	4d 85 f6             	test   %r14,%r14
    10dd:	0f 94 c2             	sete   %dl
    10e0:	08 c2                	or     %al,%dl
    10e2:	48 bf 00 36 00 00 01 	movabs $0x100003600,%rdi
    10e9:	00 00 00 
    10ec:	75 29                	jne    0x1117
    10ee:	4d 89 f7             	mov    %r14,%r15
    10f1:	48 89 ca             	mov    %rcx,%rdx
    10f4:	4c 89 f0             	mov    %r14,%rax
    10f7:	66 0f 1f 84 00 00 00 	nopw   0x0(%rax,%rax,1)
    10fe:	00 00 
    1100:	0f b6 32             	movzbl (%rdx),%esi
    1103:	48 83 fe 20          	cmp    $0x20,%rsi
    1107:	77 28                	ja     0x1131
    1109:	48 0f a3 f7          	bt     %rsi,%rdi
    110d:	73 22                	jae    0x1131
    110f:	48 ff c2             	inc    %rdx
    1112:	48 ff c8             	dec    %rax
    1115:	75 e9                	jne    0x1100
    1117:	48 8b 7c 24 08       	mov    0x8(%rsp),%rdi
    111c:	48 85 ff             	test   %rdi,%rdi
    111f:	0f 84 bb f5 ff ff    	je     0x6e0
    1125:	b8 02 00 00 00       	mov    $0x2,%eax
    112a:	0f 05                	syscall
    112c:	e9 af f5 ff ff       	jmp    0x6e0
    1131:	4c 01 f1             	add    %r14,%rcx
    1134:	48 ff c9             	dec    %rcx
    1137:	31 d2                	xor    %edx,%edx
    1139:	0f 1f 80 00 00 00 00 	nopl   0x0(%rax)
    1140:	0f b6 34 11          	movzbl (%rcx,%rdx,1),%esi
    1144:	48 83 fe 20          	cmp    $0x20,%rsi
    1148:	77 13                	ja     0x115d
    114a:	48 0f a3 f7          	bt     %rsi,%rdi
    114e:	73 0d                	jae    0x115d
    1150:	48 ff ca             	dec    %rdx
    1153:	48 89 c6             	mov    %rax,%rsi
    1156:	48 01 d6             	add    %rdx,%rsi
    1159:	75 e5                	jne    0x1140
    115b:	eb ba                	jmp    0x1117
    115d:	49 83 fd 01          	cmp    $0x1,%r13
    1161:	4c 89 ef             	mov    %r13,%rdi
    1164:	48 83 d7 00          	adc    $0x0,%rdi
    1168:	b8 01 00 00 00       	mov    $0x1,%eax
    116d:	be 01 00 00 00       	mov    $0x1,%esi
    1172:	48 89 3c 24          	mov    %rdi,(%rsp)
    1176:	0f 05                	syscall
    1178:	48 89 c2             	mov    %rax,%rdx
    117b:	4d 85 ed             	test   %r13,%r13
    117e:	74 14                	je     0x1194
    1180:	48 8b 4c 24 08       	mov    0x8(%rsp),%rcx
    1185:	0f b6 01             	movzbl (%rcx),%eax
    1188:	88 02                	mov    %al,(%rdx)
    118a:	49 83 fd 01          	cmp    $0x1,%r13
    118e:	0f 85 3a 01 00 00    	jne    0x12ce
    1194:	48 8b 34 24          	mov    (%rsp),%rsi
    1198:	48 8b bc 24 e8 02 00 	mov    0x2e8(%rsp),%rdi
    119f:	00 
    11a0:	48 8b 84 24 f0 02 00 	mov    0x2f0(%rsp),%rax
    11a7:	00 
    11a8:	48 83 f8 10          	cmp    $0x10,%rax
    11ac:	0f 85 97 00 00 00    	jne    0x1249
    11b2:	48 83 ff 0f          	cmp    $0xf,%rdi
    11b6:	0f 87 54 13 00 00    	ja     0x2510
    11bc:	48 c1 e7 05          	shl    $0x5,%rdi
    11c0:	48 8b 8c 3c f0 00 00 	mov    0xf0(%rsp,%rdi,1),%rcx
    11c7:	00 
    11c8:	48 85 c9             	test   %rcx,%rcx
    11cb:	0f 95 c0             	setne  %al
    11ce:	84 84 3c e8 00 00 00 	test   %al,0xe8(%rsp,%rdi,1)
    11d5:	48 c7 84 3c e8 00 00 	movq   $0x0,0xe8(%rsp,%rdi,1)
    11dc:	00 00 00 00 00 
    11e1:	74 16                	je     0x11f9
    11e3:	b8 02 00 00 00       	mov    $0x2,%eax
    11e8:	48 89 cf             	mov    %rcx,%rdi
    11eb:	48 89 d3             	mov    %rdx,%rbx
    11ee:	48 89 f5             	mov    %rsi,%rbp
    11f1:	0f 05                	syscall
    11f3:	48 89 ee             	mov    %rbp,%rsi
    11f6:	48 89 da             	mov    %rbx,%rdx
    11f9:	48 8b bc 24 e8 02 00 	mov    0x2e8(%rsp),%rdi
    1200:	00 
    1201:	48 83 ff 10          	cmp    $0x10,%rdi
    1205:	0f 83 17 13 00 00    	jae    0x2522
    120b:	48 c1 e7 05          	shl    $0x5,%rdi
    120f:	48 c7 84 3c e8 00 00 	movq   $0x1,0xe8(%rsp,%rdi,1)
    1216:	00 01 00 00 00 
    121b:	48 89 94 3c f0 00 00 	mov    %rdx,0xf0(%rsp,%rdi,1)
    1222:	00 
    1223:	4c 89 ac 3c f8 00 00 	mov    %r13,0xf8(%rsp,%rdi,1)
    122a:	00 
    122b:	48 89 b4 3c 00 01 00 	mov    %rsi,0x100(%rsp,%rdi,1)
    1232:	00 
    1233:	8b 84 24 e8 02 00 00 	mov    0x2e8(%rsp),%eax
    123a:	ff c0                	inc    %eax
    123c:	83 e0 0f             	and    $0xf,%eax
    123f:	48 89 84 24 e8 02 00 	mov    %rax,0x2e8(%rsp)
    1246:	00 
    1247:	eb 37                	jmp    0x1280
    1249:	01 c7                	add    %eax,%edi
    124b:	83 e7 0f             	and    $0xf,%edi
    124e:	c1 e7 05             	shl    $0x5,%edi
    1251:	48 c7 84 3c e8 00 00 	movq   $0x1,0xe8(%rsp,%rdi,1)
    1258:	00 01 00 00 00 
    125d:	48 89 94 3c f0 00 00 	mov    %rdx,0xf0(%rsp,%rdi,1)
    1264:	00 
    1265:	4c 89 ac 3c f8 00 00 	mov    %r13,0xf8(%rsp,%rdi,1)
    126c:	00 
    126d:	48 89 b4 3c 00 01 00 	mov    %rsi,0x100(%rsp,%rdi,1)
    1274:	00 
    1275:	48 ff c0             	inc    %rax
    1278:	48 89 84 24 f0 02 00 	mov    %rax,0x2f0(%rsp)
    127f:	00 
    1280:	4d 8d 6e 01          	lea    0x1(%r14),%r13
    1284:	49 8d 5e fb          	lea    -0x5(%r14),%rbx
    1288:	4d 8d 46 fa          	lea    -0x6(%r14),%r8
    128c:	4c 89 e5             	mov    %r12,%rbp
    128f:	48 be 00 36 00 00 01 	movabs $0x100003600,%rsi
    1296:	00 00 00 
    1299:	0f 1f 80 00 00 00 00 	nopl   0x0(%rax)
    12a0:	0f b6 45 00          	movzbl 0x0(%rbp),%eax
    12a4:	48 83 f8 20          	cmp    $0x20,%rax
    12a8:	0f 87 99 00 00 00    	ja     0x1347
    12ae:	48 0f a3 c6          	bt     %rax,%rsi
    12b2:	0f 83 8f 00 00 00    	jae    0x1347
    12b8:	48 ff c5             	inc    %rbp
    12bb:	49 ff cd             	dec    %r13
    12be:	48 ff cb             	dec    %rbx
    12c1:	49 ff c8             	dec    %r8
    12c4:	49 ff cf             	dec    %r15
    12c7:	75 d7                	jne    0x12a0
    12c9:	e9 49 fe ff ff       	jmp    0x1117
    12ce:	bd 01 00 00 00       	mov    $0x1,%ebp
    12d3:	bb 02 00 00 00       	mov    $0x2,%ebx
    12d8:	48 8b 34 24          	mov    (%rsp),%rsi
    12dc:	eb 15                	jmp    0x12f3
    12de:	66 90                	xchg   %ax,%ax
    12e0:	88 04 2a             	mov    %al,(%rdx,%rbp,1)
    12e3:	48 ff c5             	inc    %rbp
    12e6:	48 83 c3 02          	add    $0x2,%rbx
    12ea:	49 39 ed             	cmp    %rbp,%r13
    12ed:	0f 84 a5 fe ff ff    	je     0x1198
    12f3:	0f b6 04 29          	movzbl (%rcx,%rbp,1),%eax
    12f7:	48 39 f5             	cmp    %rsi,%rbp
    12fa:	75 e4                	jne    0x12e0
    12fc:	88 44 24 18          	mov    %al,0x18(%rsp)
    1300:	b8 01 00 00 00       	mov    $0x1,%eax
    1305:	48 89 14 24          	mov    %rdx,(%rsp)
    1309:	be 01 00 00 00       	mov    $0x1,%esi
    130e:	48 89 df             	mov    %rbx,%rdi
    1311:	0f 05                	syscall
    1313:	48 89 44 24 10       	mov    %rax,0x10(%rsp)
    1318:	48 89 c7             	mov    %rax,%rdi
    131b:	48 8b 34 24          	mov    (%rsp),%rsi
    131f:	48 89 ea             	mov    %rbp,%rdx
    1322:	ff 15 f8 44 00 00    	call   *0x44f8(%rip)        # 0x5820
    1328:	b8 02 00 00 00       	mov    $0x2,%eax
    132d:	48 8b 3c 24          	mov    (%rsp),%rdi
    1331:	0f 05                	syscall
    1333:	0f b6 44 24 18       	movzbl 0x18(%rsp),%eax
    1338:	48 8b 4c 24 08       	mov    0x8(%rsp),%rcx
    133d:	48 89 de             	mov    %rbx,%rsi
    1340:	48 8b 54 24 10       	mov    0x10(%rsp),%rdx
    1345:	eb 99                	jmp    0x12e0
    1347:	4b 8d 0c 34          	lea    (%r12,%r14,1),%rcx
    134b:	48 ff c9             	dec    %rcx
    134e:	31 c0                	xor    %eax,%eax
    1350:	0f b6 14 01          	movzbl (%rcx,%rax,1),%edx
    1354:	48 83 fa 20          	cmp    $0x20,%rdx
    1358:	77 1f                	ja     0x1379
    135a:	48 0f a3 d6          	bt     %rdx,%rsi
    135e:	73 19                	jae    0x1379
    1360:	48 ff c8             	dec    %rax
    1363:	49 ff cd             	dec    %r13
    1366:	48 ff cb             	dec    %rbx
    1369:	49 ff c8             	dec    %r8
    136c:	4c 89 fa             	mov    %r15,%rdx
    136f:	48 01 c2             	add    %rax,%rdx
    1372:	75 dc                	jne    0x1350
    1374:	e9 9e fd ff ff       	jmp    0x1117
    1379:	48 c7 44 24 40 01 00 	movq   $0x1,0x40(%rsp)
    1380:	00 00 
    1382:	48 c7 44 24 48 00 00 	movq   $0x0,0x48(%rsp)
    1389:	00 00 
    138b:	48 c7 44 24 50 01 00 	movq   $0x1,0x50(%rsp)
    1392:	00 00 
    1394:	48 c7 44 24 58 00 00 	movq   $0x0,0x58(%rsp)
    139b:	00 00 
    139d:	48 c7 44 24 60 01 00 	movq   $0x1,0x60(%rsp)
    13a4:	00 00 
    13a6:	48 c7 44 24 68 00 00 	movq   $0x0,0x68(%rsp)
    13ad:	00 00 
    13af:	48 c7 44 24 70 01 00 	movq   $0x1,0x70(%rsp)
    13b6:	00 00 
    13b8:	48 c7 44 24 78 00 00 	movq   $0x0,0x78(%rsp)
    13bf:	00 00 
    13c1:	48 c7 84 24 80 00 00 	movq   $0x1,0x80(%rsp)
    13c8:	00 01 00 00 00 
    13cd:	48 c7 84 24 88 00 00 	movq   $0x0,0x88(%rsp)
    13d4:	00 00 00 00 00 
    13d9:	48 c7 84 24 90 00 00 	movq   $0x1,0x90(%rsp)
    13e0:	00 01 00 00 00 
    13e5:	48 c7 84 24 98 00 00 	movq   $0x0,0x98(%rsp)
    13ec:	00 00 00 00 00 
    13f1:	48 c7 84 24 a0 00 00 	movq   $0x1,0xa0(%rsp)
    13f8:	00 01 00 00 00 
    13fd:	48 c7 84 24 a8 00 00 	movq   $0x0,0xa8(%rsp)
    1404:	00 00 00 00 00 
    1409:	48 c7 84 24 b0 00 00 	movq   $0x1,0xb0(%rsp)
    1410:	00 01 00 00 00 
    1415:	48 c7 84 24 b8 00 00 	movq   $0x0,0xb8(%rsp)
    141c:	00 00 00 00 00 
    1421:	49 01 c7             	add    %rax,%r15
    1424:	45 31 c9             	xor    %r9d,%r9d
    1427:	45 31 f6             	xor    %r14d,%r14d
    142a:	31 c0                	xor    %eax,%eax
    142c:	eb 10                	jmp    0x143e
    142e:	66 90                	xchg   %ax,%ax
    1430:	31 c0                	xor    %eax,%eax
    1432:	49 ff c6             	inc    %r14
    1435:	49 ff cd             	dec    %r13
    1438:	0f 84 b4 00 00 00    	je     0x14f2
    143e:	49 83 fd 01          	cmp    $0x1,%r13
    1442:	74 1c                	je     0x1460
    1444:	4d 39 fe             	cmp    %r15,%r14
    1447:	0f 83 e7 10 00 00    	jae    0x2534
    144d:	42 0f b6 4c 35 00    	movzbl 0x0(%rbp,%r14,1),%ecx
    1453:	83 f9 09             	cmp    $0x9,%ecx
    1456:	74 08                	je     0x1460
    1458:	83 f9 20             	cmp    $0x20,%ecx
    145b:	75 7c                	jne    0x14d9
    145d:	0f 1f 00             	nopl   (%rax)
    1460:	49 83 f9 08          	cmp    $0x8,%r9
    1464:	0f 92 c1             	setb   %cl
    1467:	84 c8                	test   %cl,%al
    1469:	74 c5                	je     0x1430
    146b:	4c 89 f2             	mov    %r14,%rdx
    146e:	48 29 f2             	sub    %rsi,%rdx
    1471:	0f 82 38 10 00 00    	jb     0x24af
    1477:	48 01 ee             	add    %rbp,%rsi
    147a:	48 8d bc 24 f8 02 00 	lea    0x2f8(%rsp),%rdi
    1481:	00 
    1482:	4d 89 c4             	mov    %r8,%r12
    1485:	4c 89 0c 24          	mov    %r9,(%rsp)
    1489:	ff 15 89 43 00 00    	call   *0x4389(%rip)        # 0x5818
    148f:	4c 8b 0c 24          	mov    (%rsp),%r9
    1493:	4d 89 e0             	mov    %r12,%r8
    1496:	80 bc 24 f8 02 00 00 	cmpb   $0x0,0x2f8(%rsp)
    149d:	00 
    149e:	48 8b 84 24 08 03 00 	mov    0x308(%rsp),%rax
    14a5:	00 
    14a6:	b9 00 00 00 00       	mov    $0x0,%ecx
    14ab:	48 0f 45 c1          	cmovne %rcx,%rax
    14af:	48 8b 8c 24 00 03 00 	mov    0x300(%rsp),%rcx
    14b6:	00 
    14b7:	ba 01 00 00 00       	mov    $0x1,%edx
    14bc:	48 0f 45 ca          	cmovne %rdx,%rcx
    14c0:	4c 89 ca             	mov    %r9,%rdx
    14c3:	48 c1 e2 04          	shl    $0x4,%rdx
    14c7:	48 89 4c 14 40       	mov    %rcx,0x40(%rsp,%rdx,1)
    14cc:	48 89 44 14 48       	mov    %rax,0x48(%rsp,%rdx,1)
    14d1:	49 ff c1             	inc    %r9
    14d4:	e9 57 ff ff ff       	jmp    0x1430
    14d9:	48 83 f8 01          	cmp    $0x1,%rax
    14dd:	49 0f 45 f6          	cmovne %r14,%rsi
    14e1:	b8 01 00 00 00       	mov    $0x1,%eax
    14e6:	49 ff c6             	inc    %r14
    14e9:	49 ff cd             	dec    %r13
    14ec:	0f 85 4c ff ff ff    	jne    0x143e
    14f2:	49 83 f9 09          	cmp    $0x9,%r9
    14f6:	0f 83 e6 0f 00 00    	jae    0x24e2
    14fc:	4d 85 c9             	test   %r9,%r9
    14ff:	0f 84 42 10 00 00    	je     0x2547
    1505:	4c 8b 7c 24 40       	mov    0x40(%rsp),%r15
    150a:	4c 8b 74 24 48       	mov    0x48(%rsp),%r14
    150f:	49 8d 46 ff          	lea    -0x1(%r14),%rax
    1513:	48 83 f8 07          	cmp    $0x7,%rax
    1517:	0f 87 69 01 00 00    	ja     0x1686
    151d:	48 8d 0d 7c 2d 00 00 	lea    0x2d7c(%rip),%rcx        # 0x42a0
    1524:	48 63 04 81          	movslq (%rcx,%rax,4),%rax
    1528:	48 01 c8             	add    %rcx,%rax
    152b:	ff e0                	jmp    *%rax
    152d:	41 80 3f 3f          	cmpb   $0x3f,(%r15)
    1531:	0f 85 4f 01 00 00    	jne    0x1686
    1537:	e9 79 01 00 00       	jmp    0x16b5
    153c:	41 8b 07             	mov    (%r15),%eax
    153f:	b9 66 6f 72 6d       	mov    $0x6d726f66,%ecx
    1544:	31 c8                	xor    %ecx,%eax
    1546:	41 0f b7 4f 04       	movzwl 0x4(%r15),%ecx
    154b:	81 f1 61 74 00 00    	xor    $0x7461,%ecx
    1551:	09 c1                	or     %eax,%ecx
    1553:	0f 84 71 01 00 00    	je     0x16ca
    1559:	41 8b 07             	mov    (%r15),%eax
    155c:	b9 73 74 61 74       	mov    $0x74617473,%ecx
    1561:	31 c8                	xor    %ecx,%eax
    1563:	41 0f b7 4f 04       	movzwl 0x4(%r15),%ecx
    1568:	81 f1 75 73 00 00    	xor    $0x7375,%ecx
    156e:	09 c1                	or     %eax,%ecx
    1570:	0f 85 10 01 00 00    	jne    0x1686
    1576:	49 83 f9 01          	cmp    $0x1,%r9
    157a:	0f 85 11 09 00 00    	jne    0x1e91
    1580:	be 18 00 00 00       	mov    $0x18,%esi
    1585:	31 c0                	xor    %eax,%eax
    1587:	48 8d 3d 64 30 00 00 	lea    0x3064(%rip),%rdi        # 0x45f2
    158e:	0f 05                	syscall
    1590:	e9 82 fb ff ff       	jmp    0x1117
    1595:	66 41 81 3f 6c 73    	cmpw   $0x736c,(%r15)
    159b:	0f 84 79 01 00 00    	je     0x171a
    15a1:	66 41 81 3f 72 6d    	cmpw   $0x6d72,(%r15)
    15a7:	0f 85 d9 00 00 00    	jne    0x1686
    15ad:	49 83 f9 01          	cmp    $0x1,%r9
    15b1:	0f 85 24 09 00 00    	jne    0x1edb
    15b7:	be 11 00 00 00       	mov    $0x11,%esi
    15bc:	31 c0                	xor    %eax,%eax
    15be:	48 8d 3d 2c 31 00 00 	lea    0x312c(%rip),%rdi        # 0x46f1
    15c5:	0f 05                	syscall
    15c7:	e9 4b fb ff ff       	jmp    0x1117
    15cc:	48 b8 73 68 75 74 64 	movabs $0x6e776f6474756873,%rax
    15d3:	6f 77 6e 
    15d6:	49 39 07             	cmp    %rax,(%r15)
    15d9:	0f 85 a7 00 00 00    	jne    0x1686
    15df:	e9 e1 0e 00 00       	jmp    0x24c5
    15e4:	41 0f b7 07          	movzwl (%r15),%eax
    15e8:	35 63 61 00 00       	xor    $0x6163,%eax
    15ed:	41 0f b6 4f 02       	movzbl 0x2(%r15),%ecx
    15f2:	83 f1 74             	xor    $0x74,%ecx
    15f5:	66 09 c1             	or     %ax,%cx
    15f8:	0f 85 88 00 00 00    	jne    0x1686
    15fe:	49 83 f9 01          	cmp    $0x1,%r9
    1602:	0f 85 76 07 00 00    	jne    0x1d7e
    1608:	be 12 00 00 00       	mov    $0x12,%esi
    160d:	31 c0                	xor    %eax,%eax
    160f:	48 8d 3d 01 31 00 00 	lea    0x3101(%rip),%rdi        # 0x4717
    1616:	0f 05                	syscall
    1618:	e9 fa fa ff ff       	jmp    0x1117
    161d:	41 81 3f 68 65 6c 70 	cmpl   $0x706c6568,(%r15)
    1624:	0f 84 8b 00 00 00    	je     0x16b5
    162a:	41 81 3f 6b 69 6c 6c 	cmpl   $0x6c6c696b,(%r15)
    1631:	75 53                	jne    0x1686
    1633:	49 83 f9 01          	cmp    $0x1,%r9
    1637:	0f 85 09 09 00 00    	jne    0x1f46
    163d:	be 16 00 00 00       	mov    $0x16,%esi
    1642:	31 c0                	xor    %eax,%eax
    1644:	48 8d 3d 5f 31 00 00 	lea    0x315f(%rip),%rdi        # 0x47aa
    164b:	0f 05                	syscall
    164d:	e9 c5 fa ff ff       	jmp    0x1117
    1652:	41 8b 07             	mov    (%r15),%eax
    1655:	b9 77 72 69 74       	mov    $0x74697277,%ecx
    165a:	31 c8                	xor    %ecx,%eax
    165c:	41 0f b6 4f 04       	movzbl 0x4(%r15),%ecx
    1661:	83 f1 65             	xor    $0x65,%ecx
    1664:	09 c1                	or     %eax,%ecx
    1666:	0f 84 e7 06 00 00    	je     0x1d53
    166c:	41 8b 07             	mov    (%r15),%eax
    166f:	b9 63 6c 65 61       	mov    $0x61656c63,%ecx
    1674:	31 c8                	xor    %ecx,%eax
    1676:	41 0f b6 4f 04       	movzbl 0x4(%r15),%ecx
    167b:	83 f1 72             	xor    $0x72,%ecx
    167e:	09 c1                	or     %eax,%ecx
    1680:	0f 84 ec 06 00 00    	je     0x1d72
    1686:	be 12 00 00 00       	mov    $0x12,%esi
    168b:	31 c0                	xor    %eax,%eax
    168d:	48 8d 3d 2c 31 00 00 	lea    0x312c(%rip),%rdi        # 0x47c0
    1694:	0f 05                	syscall
    1696:	31 c0                	xor    %eax,%eax
    1698:	4c 89 ff             	mov    %r15,%rdi
    169b:	4c 89 f6             	mov    %r14,%rsi
    169e:	0f 05                	syscall
    16a0:	be 1b 00 00 00       	mov    $0x1b,%esi
    16a5:	31 c0                	xor    %eax,%eax
    16a7:	48 8d 3d 24 31 00 00 	lea    0x3124(%rip),%rdi        # 0x47d2
    16ae:	0f 05                	syscall
    16b0:	e9 62 fa ff ff       	jmp    0x1117
    16b5:	be 2b 02 00 00       	mov    $0x22b,%esi
    16ba:	31 c0                	xor    %eax,%eax
    16bc:	48 8d 3d 3b 31 00 00 	lea    0x313b(%rip),%rdi        # 0x47fe
    16c3:	0f 05                	syscall
    16c5:	e9 4d fa ff ff       	jmp    0x1117
    16ca:	49 83 f9 01          	cmp    $0x1,%r9
    16ce:	74 25                	je     0x16f5
    16d0:	48 83 7c 24 58 05    	cmpq   $0x5,0x58(%rsp)
    16d6:	75 1d                	jne    0x16f5
    16d8:	48 8b 44 24 50       	mov    0x50(%rsp),%rax
    16dd:	8b 08                	mov    (%rax),%ecx
    16df:	ba 2d 2d 79 65       	mov    $0x65792d2d,%edx
    16e4:	31 d1                	xor    %edx,%ecx
    16e6:	0f b6 40 04          	movzbl 0x4(%rax),%eax
    16ea:	83 f0 73             	xor    $0x73,%eax
    16ed:	09 c8                	or     %ecx,%eax
    16ef:	0f 84 2c 0a 00 00    	je     0x2121
    16f5:	be 23 00 00 00       	mov    $0x23,%esi
    16fa:	31 c0                	xor    %eax,%eax
    16fc:	48 8d 3d ea 2b 00 00 	lea    0x2bea(%rip),%rdi        # 0x42ed
    1703:	0f 05                	syscall
    1705:	be 27 00 00 00       	mov    $0x27,%esi
    170a:	31 c0                	xor    %eax,%eax
    170c:	48 8d 3d fd 2b 00 00 	lea    0x2bfd(%rip),%rdi        # 0x4310
    1713:	0f 05                	syscall
    1715:	e9 fd f9 ff ff       	jmp    0x1117
    171a:	66 c7 84 24 30 03 00 	movw   $0x0,0x330(%rsp)
    1721:	00 00 00 
    1724:	48 c7 84 24 28 03 00 	movq   $0x0,0x328(%rsp)
    172b:	00 00 00 00 00 
    1730:	48 c7 84 24 20 03 00 	movq   $0x0,0x320(%rsp)
    1737:	00 00 00 00 00 
    173c:	48 c7 84 24 18 03 00 	movq   $0x0,0x318(%rsp)
    1743:	00 00 00 00 00 
    1748:	48 c7 84 24 10 03 00 	movq   $0x0,0x310(%rsp)
    174f:	00 00 00 00 00 
    1754:	48 c7 84 24 08 03 00 	movq   $0x0,0x308(%rsp)
    175b:	00 00 00 00 00 
    1760:	48 c7 84 24 00 03 00 	movq   $0x0,0x300(%rsp)
    1767:	00 00 00 00 00 
    176c:	48 c7 84 24 f8 02 00 	movq   $0x0,0x2f8(%rsp)
    1773:	00 00 00 00 00 
    1778:	48 8d 84 24 b8 06 00 	lea    0x6b8(%rsp),%rax
    177f:	00 
    1780:	66 c7 80 b8 fc ff ff 	movw   $0x0,-0x348(%rax)
    1787:	00 00 
    1789:	48 c7 80 b0 fc ff ff 	movq   $0x0,-0x350(%rax)
    1790:	00 00 00 00 
    1794:	48 c7 80 a8 fc ff ff 	movq   $0x0,-0x358(%rax)
    179b:	00 00 00 00 
    179f:	48 c7 80 a0 fc ff ff 	movq   $0x0,-0x360(%rax)
    17a6:	00 00 00 00 
    17aa:	48 c7 80 98 fc ff ff 	movq   $0x0,-0x368(%rax)
    17b1:	00 00 00 00 
    17b5:	48 c7 80 90 fc ff ff 	movq   $0x0,-0x370(%rax)
    17bc:	00 00 00 00 
    17c0:	48 c7 80 88 fc ff ff 	movq   $0x0,-0x378(%rax)
    17c7:	00 00 00 00 
    17cb:	48 c7 80 80 fc ff ff 	movq   $0x0,-0x380(%rax)
    17d2:	00 00 00 00 
    17d6:	66 c7 80 f8 fc ff ff 	movw   $0x0,-0x308(%rax)
    17dd:	00 00 
    17df:	48 c7 80 f0 fc ff ff 	movq   $0x0,-0x310(%rax)
    17e6:	00 00 00 00 
    17ea:	48 c7 80 e8 fc ff ff 	movq   $0x0,-0x318(%rax)
    17f1:	00 00 00 00 
    17f5:	48 c7 80 e0 fc ff ff 	movq   $0x0,-0x320(%rax)
    17fc:	00 00 00 00 
    1800:	48 c7 80 d8 fc ff ff 	movq   $0x0,-0x328(%rax)
    1807:	00 00 00 00 
    180b:	48 c7 80 d0 fc ff ff 	movq   $0x0,-0x330(%rax)
    1812:	00 00 00 00 
    1816:	48 c7 80 c8 fc ff ff 	movq   $0x0,-0x338(%rax)
    181d:	00 00 00 00 
    1821:	48 c7 80 c0 fc ff ff 	movq   $0x0,-0x340(%rax)
    1828:	00 00 00 00 
    182c:	66 c7 80 38 fd ff ff 	movw   $0x0,-0x2c8(%rax)
    1833:	00 00 
    1835:	48 c7 80 30 fd ff ff 	movq   $0x0,-0x2d0(%rax)
    183c:	00 00 00 00 
    1840:	48 c7 80 28 fd ff ff 	movq   $0x0,-0x2d8(%rax)
    1847:	00 00 00 00 
    184b:	48 c7 80 20 fd ff ff 	movq   $0x0,-0x2e0(%rax)
    1852:	00 00 00 00 
    1856:	48 c7 80 18 fd ff ff 	movq   $0x0,-0x2e8(%rax)
    185d:	00 00 00 00 
    1861:	48 c7 80 10 fd ff ff 	movq   $0x0,-0x2f0(%rax)
    1868:	00 00 00 00 
    186c:	48 c7 80 08 fd ff ff 	movq   $0x0,-0x2f8(%rax)
    1873:	00 00 00 00 
    1877:	48 c7 80 00 fd ff ff 	movq   $0x0,-0x300(%rax)
    187e:	00 00 00 00 
    1882:	66 c7 80 78 fd ff ff 	movw   $0x0,-0x288(%rax)
    1889:	00 00 
    188b:	48 c7 80 70 fd ff ff 	movq   $0x0,-0x290(%rax)
    1892:	00 00 00 00 
    1896:	48 c7 80 68 fd ff ff 	movq   $0x0,-0x298(%rax)
    189d:	00 00 00 00 
    18a1:	48 c7 80 60 fd ff ff 	movq   $0x0,-0x2a0(%rax)
    18a8:	00 00 00 00 
    18ac:	48 c7 80 58 fd ff ff 	movq   $0x0,-0x2a8(%rax)
    18b3:	00 00 00 00 
    18b7:	48 c7 80 50 fd ff ff 	movq   $0x0,-0x2b0(%rax)
    18be:	00 00 00 00 
    18c2:	48 c7 80 48 fd ff ff 	movq   $0x0,-0x2b8(%rax)
    18c9:	00 00 00 00 
    18cd:	48 c7 80 40 fd ff ff 	movq   $0x0,-0x2c0(%rax)
    18d4:	00 00 00 00 
    18d8:	66 c7 80 b8 fd ff ff 	movw   $0x0,-0x248(%rax)
    18df:	00 00 
    18e1:	48 c7 80 b0 fd ff ff 	movq   $0x0,-0x250(%rax)
    18e8:	00 00 00 00 
    18ec:	48 c7 80 a8 fd ff ff 	movq   $0x0,-0x258(%rax)
    18f3:	00 00 00 00 
    18f7:	48 c7 80 a0 fd ff ff 	movq   $0x0,-0x260(%rax)
    18fe:	00 00 00 00 
    1902:	48 c7 80 98 fd ff ff 	movq   $0x0,-0x268(%rax)
    1909:	00 00 00 00 
    190d:	48 c7 80 90 fd ff ff 	movq   $0x0,-0x270(%rax)
    1914:	00 00 00 00 
    1918:	48 c7 80 88 fd ff ff 	movq   $0x0,-0x278(%rax)
    191f:	00 00 00 00 
    1923:	48 c7 80 80 fd ff ff 	movq   $0x0,-0x280(%rax)
    192a:	00 00 00 00 
    192e:	66 c7 80 f8 fd ff ff 	movw   $0x0,-0x208(%rax)
    1935:	00 00 
    1937:	48 c7 80 f0 fd ff ff 	movq   $0x0,-0x210(%rax)
    193e:	00 00 00 00 
    1942:	48 c7 80 e8 fd ff ff 	movq   $0x0,-0x218(%rax)
    1949:	00 00 00 00 
    194d:	48 c7 80 e0 fd ff ff 	movq   $0x0,-0x220(%rax)
    1954:	00 00 00 00 
    1958:	48 c7 80 d8 fd ff ff 	movq   $0x0,-0x228(%rax)
    195f:	00 00 00 00 
    1963:	48 c7 80 d0 fd ff ff 	movq   $0x0,-0x230(%rax)
    196a:	00 00 00 00 
    196e:	48 c7 80 c8 fd ff ff 	movq   $0x0,-0x238(%rax)
    1975:	00 00 00 00 
    1979:	48 c7 80 c0 fd ff ff 	movq   $0x0,-0x240(%rax)
    1980:	00 00 00 00 
    1984:	66 c7 80 38 fe ff ff 	movw   $0x0,-0x1c8(%rax)
    198b:	00 00 
    198d:	48 c7 80 30 fe ff ff 	movq   $0x0,-0x1d0(%rax)
    1994:	00 00 00 00 
    1998:	48 c7 80 28 fe ff ff 	movq   $0x0,-0x1d8(%rax)
    199f:	00 00 00 00 
    19a3:	48 c7 80 20 fe ff ff 	movq   $0x0,-0x1e0(%rax)
    19aa:	00 00 00 00 
    19ae:	48 c7 80 18 fe ff ff 	movq   $0x0,-0x1e8(%rax)
    19b5:	00 00 00 00 
    19b9:	48 c7 80 10 fe ff ff 	movq   $0x0,-0x1f0(%rax)
    19c0:	00 00 00 00 
    19c4:	48 c7 80 08 fe ff ff 	movq   $0x0,-0x1f8(%rax)
    19cb:	00 00 00 00 
    19cf:	48 c7 80 00 fe ff ff 	movq   $0x0,-0x200(%rax)
    19d6:	00 00 00 00 
    19da:	66 c7 80 78 fe ff ff 	movw   $0x0,-0x188(%rax)
    19e1:	00 00 
    19e3:	48 c7 80 70 fe ff ff 	movq   $0x0,-0x190(%rax)
    19ea:	00 00 00 00 
    19ee:	48 c7 80 68 fe ff ff 	movq   $0x0,-0x198(%rax)
    19f5:	00 00 00 00 
    19f9:	48 c7 80 60 fe ff ff 	movq   $0x0,-0x1a0(%rax)
    1a00:	00 00 00 00 
    1a04:	48 c7 80 58 fe ff ff 	movq   $0x0,-0x1a8(%rax)
    1a0b:	00 00 00 00 
    1a0f:	48 c7 80 50 fe ff ff 	movq   $0x0,-0x1b0(%rax)
    1a16:	00 00 00 00 
    1a1a:	48 c7 80 48 fe ff ff 	movq   $0x0,-0x1b8(%rax)
    1a21:	00 00 00 00 
    1a25:	48 c7 80 40 fe ff ff 	movq   $0x0,-0x1c0(%rax)
    1a2c:	00 00 00 00 
    1a30:	66 c7 80 b8 fe ff ff 	movw   $0x0,-0x148(%rax)
    1a37:	00 00 
    1a39:	48 c7 80 b0 fe ff ff 	movq   $0x0,-0x150(%rax)
    1a40:	00 00 00 00 
    1a44:	48 c7 80 a8 fe ff ff 	movq   $0x0,-0x158(%rax)
    1a4b:	00 00 00 00 
    1a4f:	48 c7 80 a0 fe ff ff 	movq   $0x0,-0x160(%rax)
    1a56:	00 00 00 00 
    1a5a:	48 c7 80 98 fe ff ff 	movq   $0x0,-0x168(%rax)
    1a61:	00 00 00 00 
    1a65:	48 c7 80 90 fe ff ff 	movq   $0x0,-0x170(%rax)
    1a6c:	00 00 00 00 
    1a70:	48 c7 80 88 fe ff ff 	movq   $0x0,-0x178(%rax)
    1a77:	00 00 00 00 
    1a7b:	48 c7 80 80 fe ff ff 	movq   $0x0,-0x180(%rax)
    1a82:	00 00 00 00 
    1a86:	66 c7 80 f8 fe ff ff 	movw   $0x0,-0x108(%rax)
    1a8d:	00 00 
    1a8f:	48 c7 80 f0 fe ff ff 	movq   $0x0,-0x110(%rax)
    1a96:	00 00 00 00 
    1a9a:	48 c7 80 e8 fe ff ff 	movq   $0x0,-0x118(%rax)
    1aa1:	00 00 00 00 
    1aa5:	48 c7 80 e0 fe ff ff 	movq   $0x0,-0x120(%rax)
    1aac:	00 00 00 00 
    1ab0:	48 c7 80 d8 fe ff ff 	movq   $0x0,-0x128(%rax)
    1ab7:	00 00 00 00 
    1abb:	48 c7 80 d0 fe ff ff 	movq   $0x0,-0x130(%rax)
    1ac2:	00 00 00 00 
    1ac6:	48 c7 80 c8 fe ff ff 	movq   $0x0,-0x138(%rax)
    1acd:	00 00 00 00 
    1ad1:	48 c7 80 c0 fe ff ff 	movq   $0x0,-0x140(%rax)
    1ad8:	00 00 00 00 
    1adc:	66 c7 80 38 ff ff ff 	movw   $0x0,-0xc8(%rax)
    1ae3:	00 00 
    1ae5:	48 c7 80 30 ff ff ff 	movq   $0x0,-0xd0(%rax)
    1aec:	00 00 00 00 
    1af0:	48 c7 80 28 ff ff ff 	movq   $0x0,-0xd8(%rax)
    1af7:	00 00 00 00 
    1afb:	48 c7 80 20 ff ff ff 	movq   $0x0,-0xe0(%rax)
    1b02:	00 00 00 00 
    1b06:	48 c7 80 18 ff ff ff 	movq   $0x0,-0xe8(%rax)
    1b0d:	00 00 00 00 
    1b11:	48 c7 80 10 ff ff ff 	movq   $0x0,-0xf0(%rax)
    1b18:	00 00 00 00 
    1b1c:	48 c7 80 08 ff ff ff 	movq   $0x0,-0xf8(%rax)
    1b23:	00 00 00 00 
    1b27:	48 c7 80 00 ff ff ff 	movq   $0x0,-0x100(%rax)
    1b2e:	00 00 00 00 
    1b32:	66 c7 80 78 ff ff ff 	movw   $0x0,-0x88(%rax)
    1b39:	00 00 
    1b3b:	48 c7 80 70 ff ff ff 	movq   $0x0,-0x90(%rax)
    1b42:	00 00 00 00 
    1b46:	48 c7 80 68 ff ff ff 	movq   $0x0,-0x98(%rax)
    1b4d:	00 00 00 00 
    1b51:	48 c7 80 60 ff ff ff 	movq   $0x0,-0xa0(%rax)
    1b58:	00 00 00 00 
    1b5c:	48 c7 80 58 ff ff ff 	movq   $0x0,-0xa8(%rax)
    1b63:	00 00 00 00 
    1b67:	48 c7 80 50 ff ff ff 	movq   $0x0,-0xb0(%rax)
    1b6e:	00 00 00 00 
    1b72:	48 c7 80 48 ff ff ff 	movq   $0x0,-0xb8(%rax)
    1b79:	00 00 00 00 
    1b7d:	48 c7 80 40 ff ff ff 	movq   $0x0,-0xc0(%rax)
    1b84:	00 00 00 00 
    1b88:	66 c7 40 b8 00 00    	movw   $0x0,-0x48(%rax)
    1b8e:	48 c7 40 b0 00 00 00 	movq   $0x0,-0x50(%rax)
    1b95:	00 
    1b96:	48 c7 40 a8 00 00 00 	movq   $0x0,-0x58(%rax)
    1b9d:	00 
    1b9e:	48 c7 40 a0 00 00 00 	movq   $0x0,-0x60(%rax)
    1ba5:	00 
    1ba6:	48 c7 40 98 00 00 00 	movq   $0x0,-0x68(%rax)
    1bad:	00 
    1bae:	48 c7 40 90 00 00 00 	movq   $0x0,-0x70(%rax)
    1bb5:	00 
    1bb6:	48 c7 40 88 00 00 00 	movq   $0x0,-0x78(%rax)
    1bbd:	00 
    1bbe:	48 c7 40 80 00 00 00 	movq   $0x0,-0x80(%rax)
    1bc5:	00 
    1bc6:	66 c7 40 f8 00 00    	movw   $0x0,-0x8(%rax)
    1bcc:	48 c7 40 f0 00 00 00 	movq   $0x0,-0x10(%rax)
    1bd3:	00 
    1bd4:	48 c7 40 e8 00 00 00 	movq   $0x0,-0x18(%rax)
    1bdb:	00 
    1bdc:	48 c7 40 e0 00 00 00 	movq   $0x0,-0x20(%rax)
    1be3:	00 
    1be4:	48 c7 40 d8 00 00 00 	movq   $0x0,-0x28(%rax)
    1beb:	00 
    1bec:	48 c7 40 d0 00 00 00 	movq   $0x0,-0x30(%rax)
    1bf3:	00 
    1bf4:	48 c7 40 c8 00 00 00 	movq   $0x0,-0x38(%rax)
    1bfb:	00 
    1bfc:	48 c7 40 c0 00 00 00 	movq   $0x0,-0x40(%rax)
    1c03:	00 
    1c04:	66 c7 40 38 00 00    	movw   $0x0,0x38(%rax)
    1c0a:	48 c7 40 30 00 00 00 	movq   $0x0,0x30(%rax)
    1c11:	00 
    1c12:	48 c7 40 28 00 00 00 	movq   $0x0,0x28(%rax)
    1c19:	00 
    1c1a:	48 c7 40 20 00 00 00 	movq   $0x0,0x20(%rax)
    1c21:	00 
    1c22:	48 c7 40 18 00 00 00 	movq   $0x0,0x18(%rax)
    1c29:	00 
    1c2a:	48 c7 40 10 00 00 00 	movq   $0x0,0x10(%rax)
    1c31:	00 
    1c32:	48 c7 40 08 00 00 00 	movq   $0x0,0x8(%rax)
    1c39:	00 
    1c3a:	48 c7 00 00 00 00 00 	movq   $0x0,(%rax)
    1c41:	b8 0c 00 00 00       	mov    $0xc,%eax
    1c46:	be 10 00 00 00       	mov    $0x10,%esi
    1c4b:	48 8d bc 24 f8 02 00 	lea    0x2f8(%rsp),%rdi
    1c52:	00 
    1c53:	0f 05                	syscall
    1c55:	48 85 c0             	test   %rax,%rax
    1c58:	0f 88 1e 02 00 00    	js     0x1e7c
    1c5e:	0f 84 27 03 00 00    	je     0x1f8b
    1c64:	49 89 c6             	mov    %rax,%r14
    1c67:	be 35 00 00 00       	mov    $0x35,%esi
    1c6c:	31 c0                	xor    %eax,%eax
    1c6e:	48 8d 3d a3 29 00 00 	lea    0x29a3(%rip),%rdi        # 0x4618
    1c75:	0f 05                	syscall
    1c77:	be 3c 00 00 00       	mov    $0x3c,%esi
    1c7c:	31 c0                	xor    %eax,%eax
    1c7e:	48 8d 3d c8 29 00 00 	lea    0x29c8(%rip),%rdi        # 0x464d
    1c85:	0f 05                	syscall
    1c87:	49 83 fe 10          	cmp    $0x10,%r14
    1c8b:	41 bf 10 00 00 00    	mov    $0x10,%r15d
    1c91:	4d 0f 42 fe          	cmovb  %r14,%r15
    1c95:	45 31 ed             	xor    %r13d,%r13d
    1c98:	bd 03 00 00 00       	mov    $0x3,%ebp
    1c9d:	eb 26                	jmp    0x1cc5
    1c9f:	90                   	nop
    1ca0:	49 ff c5             	inc    %r13
    1ca3:	48 8b 7b 30          	mov    0x30(%rbx),%rdi
    1ca7:	e8 74 e3 ff ff       	call   0x20
    1cac:	be 07 00 00 00       	mov    $0x7,%esi
    1cb1:	31 c0                	xor    %eax,%eax
    1cb3:	48 8d 3d 01 2a 00 00 	lea    0x2a01(%rip),%rdi        # 0x46bb
    1cba:	0f 05                	syscall
    1cbc:	4d 39 fd             	cmp    %r15,%r13
    1cbf:	0f 84 98 01 00 00    	je     0x1e5d
    1cc5:	4c 89 e8             	mov    %r13,%rax
    1cc8:	48 c1 e0 06          	shl    $0x6,%rax
    1ccc:	0f b6 94 04 27 03 00 	movzbl 0x327(%rsp,%rax,1),%edx
    1cd3:	00 
    1cd4:	48 83 fa 30          	cmp    $0x30,%rdx
    1cd8:	0f 83 1b 08 00 00    	jae    0x24f9
    1cde:	48 8d 1c 04          	lea    (%rsp,%rax,1),%rbx
    1ce2:	48 81 c3 f8 02 00 00 	add    $0x2f8,%rbx
    1ce9:	48 8d bc 24 d0 00 00 	lea    0xd0(%rsp),%rdi
    1cf0:	00 
    1cf1:	48 89 de             	mov    %rbx,%rsi
    1cf4:	ff 15 1e 3b 00 00    	call   *0x3b1e(%rip)        # 0x5818
    1cfa:	80 bc 24 d0 00 00 00 	cmpb   $0x0,0xd0(%rsp)
    1d01:	00 
    1d02:	4c 8b a4 24 e0 00 00 	mov    0xe0(%rsp),%r12
    1d09:	00 
    1d0a:	4c 0f 45 e5          	cmovne %rbp,%r12
    1d0e:	48 8b bc 24 d8 00 00 	mov    0xd8(%rsp),%rdi
    1d15:	00 
    1d16:	48 8d 05 9b 29 00 00 	lea    0x299b(%rip),%rax        # 0x46b8
    1d1d:	48 0f 45 f8          	cmovne %rax,%rdi
    1d21:	31 c0                	xor    %eax,%eax
    1d23:	4c 89 e6             	mov    %r12,%rsi
    1d26:	0f 05                	syscall
    1d28:	49 83 fc 2f          	cmp    $0x2f,%r12
    1d2c:	48 8d 3d 8f 29 00 00 	lea    0x298f(%rip),%rdi        # 0x46c2
    1d33:	0f 87 67 ff ff ff    	ja     0x1ca0
    1d39:	49 83 c4 d0          	add    $0xffffffffffffffd0,%r12
    1d3d:	0f 1f 00             	nopl   (%rax)
    1d40:	be 01 00 00 00       	mov    $0x1,%esi
    1d45:	31 c0                	xor    %eax,%eax
    1d47:	0f 05                	syscall
    1d49:	49 ff c4             	inc    %r12
    1d4c:	75 f2                	jne    0x1d40
    1d4e:	e9 4d ff ff ff       	jmp    0x1ca0
    1d53:	49 83 f9 02          	cmp    $0x2,%r9
    1d57:	0f 87 91 00 00 00    	ja     0x1dee
    1d5d:	be 1e 00 00 00       	mov    $0x1e,%esi
    1d62:	31 c0                	xor    %eax,%eax
    1d64:	48 8d 3d ec 2c 00 00 	lea    0x2cec(%rip),%rdi        # 0x4a57
    1d6b:	0f 05                	syscall
    1d6d:	e9 a5 f3 ff ff       	jmp    0x1117
    1d72:	b8 09 00 00 00       	mov    $0x9,%eax
    1d77:	0f 05                	syscall
    1d79:	e9 99 f3 ff ff       	jmp    0x1117
    1d7e:	4c 8b 64 24 58       	mov    0x58(%rsp),%r12
    1d83:	4c 8b 6c 24 50       	mov    0x50(%rsp),%r13
    1d88:	b8 0e 00 00 00       	mov    $0xe,%eax
    1d8d:	ba 01 00 00 00       	mov    $0x1,%edx
    1d92:	4c 89 ef             	mov    %r13,%rdi
    1d95:	4c 89 e6             	mov    %r12,%rsi
    1d98:	45 31 d2             	xor    %r10d,%r10d
    1d9b:	0f 05                	syscall
    1d9d:	48 85 c0             	test   %rax,%rax
    1da0:	0f 88 fc 04 00 00    	js     0x22a2
    1da6:	0f 84 f4 01 00 00    	je     0x1fa0
    1dac:	48 89 c3             	mov    %rax,%rbx
    1daf:	b8 01 00 00 00       	mov    $0x1,%eax
    1db4:	be 01 00 00 00       	mov    $0x1,%esi
    1db9:	48 89 df             	mov    %rbx,%rdi
    1dbc:	0f 05                	syscall
    1dbe:	48 85 c0             	test   %rax,%rax
    1dc1:	0f 84 db 04 00 00    	je     0x22a2
    1dc7:	49 89 c6             	mov    %rax,%r14
    1dca:	b8 0e 00 00 00       	mov    $0xe,%eax
    1dcf:	4c 89 ef             	mov    %r13,%rdi
    1dd2:	4c 89 e6             	mov    %r12,%rsi
    1dd5:	4c 89 f2             	mov    %r14,%rdx
    1dd8:	49 89 da             	mov    %rbx,%r10
    1ddb:	0f 05                	syscall
    1ddd:	48 85 c0             	test   %rax,%rax
    1de0:	0f 88 b2 04 00 00    	js     0x2298
    1de6:	48 89 c2             	mov    %rax,%rdx
    1de9:	e9 b7 01 00 00       	jmp    0x1fa5
    1dee:	4c 8b 6c 24 50       	mov    0x50(%rsp),%r13
    1df3:	4c 8b 64 24 58       	mov    0x58(%rsp),%r12
    1df8:	48 be 00 36 00 00 01 	movabs $0x100003600,%rsi
    1dff:	00 00 00 
    1e02:	66 66 66 66 66 2e 0f 	data16 data16 data16 data16 cs nopw 0x0(%rax,%rax,1)
    1e09:	1f 84 00 00 00 00 00 
    1e10:	0f b6 45 00          	movzbl 0x0(%rbp),%eax
    1e14:	48 83 f8 20          	cmp    $0x20,%rax
    1e18:	0f 87 60 03 00 00    	ja     0x217e
    1e1e:	48 0f a3 c6          	bt     %rax,%rsi
    1e22:	0f 83 56 03 00 00    	jae    0x217e
    1e28:	48 ff c5             	inc    %rbp
    1e2b:	48 ff cb             	dec    %rbx
    1e2e:	49 ff c8             	dec    %r8
    1e31:	48 83 fb fb          	cmp    $0xfffffffffffffffb,%rbx
    1e35:	75 d9                	jne    0x1e10
    1e37:	41 bf 01 00 00 00    	mov    $0x1,%r15d
    1e3d:	45 31 c0             	xor    %r8d,%r8d
    1e40:	4d 89 c6             	mov    %r8,%r14
    1e43:	4d 29 e6             	sub    %r12,%r14
    1e46:	0f 83 34 05 00 00    	jae    0x2380
    1e4c:	4d 89 c6             	mov    %r8,%r14
    1e4f:	4d 85 f6             	test   %r14,%r14
    1e52:	0f 85 7c 05 00 00    	jne    0x23d4
    1e58:	e9 9e 05 00 00       	jmp    0x23fb
    1e5d:	49 83 fe 10          	cmp    $0x10,%r14
    1e61:	0f 86 b0 f2 ff ff    	jbe    0x1117
    1e67:	be 2f 00 00 00       	mov    $0x2f,%esi
    1e6c:	31 c0                	xor    %eax,%eax
    1e6e:	48 8d 3d 14 28 00 00 	lea    0x2814(%rip),%rdi        # 0x4689
    1e75:	0f 05                	syscall
    1e77:	e9 9b f2 ff ff       	jmp    0x1117
    1e7c:	be 15 00 00 00       	mov    $0x15,%esi
    1e81:	31 c0                	xor    %eax,%eax
    1e83:	48 8d 3d 39 28 00 00 	lea    0x2839(%rip),%rdi        # 0x46c3
    1e8a:	0f 05                	syscall
    1e8c:	e9 86 f2 ff ff       	jmp    0x1117
    1e91:	48 8b 44 24 58       	mov    0x58(%rsp),%rax
    1e96:	48 85 c0             	test   %rax,%rax
    1e99:	0f 84 7d 01 00 00    	je     0x201c
    1e9f:	48 8b 4c 24 50       	mov    0x50(%rsp),%rcx
    1ea4:	31 d2                	xor    %edx,%edx
    1ea6:	45 31 f6             	xor    %r14d,%r14d
    1ea9:	0f 1f 80 00 00 00 00 	nopl   0x0(%rax)
    1eb0:	0f b6 34 11          	movzbl (%rcx,%rdx,1),%esi
    1eb4:	40 80 c6 d0          	add    $0xd0,%sil
    1eb8:	40 80 fe 09          	cmp    $0x9,%sil
    1ebc:	0f 87 5d 01 00 00    	ja     0x201f
    1ec2:	4b 8d 3c b6          	lea    (%r14,%r14,4),%rdi
    1ec6:	40 0f b6 f6          	movzbl %sil,%esi
    1eca:	4c 8d 34 7e          	lea    (%rsi,%rdi,2),%r14
    1ece:	48 ff c2             	inc    %rdx
    1ed1:	48 39 d0             	cmp    %rdx,%rax
    1ed4:	75 da                	jne    0x1eb0
    1ed6:	e9 44 01 00 00       	jmp    0x201f
    1edb:	48 8b 5c 24 58       	mov    0x58(%rsp),%rbx
    1ee0:	4c 8b 74 24 50       	mov    0x50(%rsp),%r14
    1ee5:	b8 0f 00 00 00       	mov    $0xf,%eax
    1eea:	4c 89 f7             	mov    %r14,%rdi
    1eed:	48 89 de             	mov    %rbx,%rsi
    1ef0:	0f 05                	syscall
    1ef2:	49 89 c4             	mov    %rax,%r12
    1ef5:	45 85 e4             	test   %r12d,%r12d
    1ef8:	0f 84 9d 01 00 00    	je     0x209b
    1efe:	be 0a 00 00 00       	mov    $0xa,%esi
    1f03:	31 c0                	xor    %eax,%eax
    1f05:	48 8d 3d db 27 00 00 	lea    0x27db(%rip),%rdi        # 0x46e7
    1f0c:	0f 05                	syscall
    1f0e:	49 63 dc             	movslq %r12d,%rbx
    1f11:	48 85 db             	test   %rbx,%rbx
    1f14:	79 13                	jns    0x1f29
    1f16:	be 01 00 00 00       	mov    $0x1,%esi
    1f1b:	31 c0                	xor    %eax,%eax
    1f1d:	48 8d 3d e6 26 00 00 	lea    0x26e6(%rip),%rdi        # 0x460a
    1f24:	0f 05                	syscall
    1f26:	48 f7 db             	neg    %rbx
    1f29:	48 89 df             	mov    %rbx,%rdi
    1f2c:	e8 ef e0 ff ff       	call   0x20
    1f31:	be 01 00 00 00       	mov    $0x1,%esi
    1f36:	31 c0                	xor    %eax,%eax
    1f38:	48 8d 3d ad 23 00 00 	lea    0x23ad(%rip),%rdi        # 0x42ec
    1f3f:	0f 05                	syscall
    1f41:	e9 d1 f1 ff ff       	jmp    0x1117
    1f46:	48 8b 44 24 58       	mov    0x58(%rsp),%rax
    1f4b:	48 85 c0             	test   %rax,%rax
    1f4e:	0f 84 76 01 00 00    	je     0x20ca
    1f54:	48 8b 4c 24 50       	mov    0x50(%rsp),%rcx
    1f59:	31 d2                	xor    %edx,%edx
    1f5b:	45 31 f6             	xor    %r14d,%r14d
    1f5e:	66 90                	xchg   %ax,%ax
    1f60:	0f b6 34 11          	movzbl (%rcx,%rdx,1),%esi
    1f64:	40 80 c6 d0          	add    $0xd0,%sil
    1f68:	40 80 fe 09          	cmp    $0x9,%sil
    1f6c:	0f 87 5b 01 00 00    	ja     0x20cd
    1f72:	4b 8d 3c b6          	lea    (%r14,%r14,4),%rdi
    1f76:	40 0f b6 f6          	movzbl %sil,%esi
    1f7a:	4c 8d 34 7e          	lea    (%rsi,%rdi,2),%r14
    1f7e:	48 ff c2             	inc    %rdx
    1f81:	48 39 d0             	cmp    %rdx,%rax
    1f84:	75 da                	jne    0x1f60
    1f86:	e9 42 01 00 00       	jmp    0x20cd
    1f8b:	be 0b 00 00 00       	mov    $0xb,%esi
    1f90:	31 c0                	xor    %eax,%eax
    1f92:	48 8d 3d 74 26 00 00 	lea    0x2674(%rip),%rdi        # 0x460d
    1f99:	0f 05                	syscall
    1f9b:	e9 77 f1 ff ff       	jmp    0x1117
    1fa0:	31 d2                	xor    %edx,%edx
    1fa2:	45 31 f6             	xor    %r14d,%r14d
    1fa5:	4d 85 f6             	test   %r14,%r14
    1fa8:	49 0f 44 d6          	cmove  %r14,%rdx
    1fac:	b8 01 00 00 00       	mov    $0x1,%eax
    1fb1:	4c 89 f6             	mov    %r14,%rsi
    1fb4:	48 0f 44 f0          	cmove  %rax,%rsi
    1fb8:	48 8d bc 24 f8 02 00 	lea    0x2f8(%rsp),%rdi
    1fbf:	00 
    1fc0:	ff 15 52 38 00 00    	call   *0x3852(%rip)        # 0x5818
    1fc6:	80 bc 24 f8 02 00 00 	cmpb   $0x0,0x2f8(%rsp)
    1fcd:	00 
    1fce:	be 00 00 00 00       	mov    $0x0,%esi
    1fd3:	bf 01 00 00 00       	mov    $0x1,%edi
    1fd8:	75 10                	jne    0x1fea
    1fda:	48 8b b4 24 08 03 00 	mov    0x308(%rsp),%rsi
    1fe1:	00 
    1fe2:	48 8b bc 24 00 03 00 	mov    0x300(%rsp),%rdi
    1fe9:	00 
    1fea:	b8 00 00 00 00       	mov    $0x0,%eax
    1fef:	0f 05                	syscall
    1ff1:	be 01 00 00 00       	mov    $0x1,%esi
    1ff6:	b8 00 00 00 00       	mov    $0x0,%eax
    1ffb:	48 8d 3d ea 22 00 00 	lea    0x22ea(%rip),%rdi        # 0x42ec
    2002:	0f 05                	syscall
    2004:	4d 85 f6             	test   %r14,%r14
    2007:	0f 84 0a f1 ff ff    	je     0x1117
    200d:	b8 02 00 00 00       	mov    $0x2,%eax
    2012:	4c 89 f7             	mov    %r14,%rdi
    2015:	0f 05                	syscall
    2017:	e9 fb f0 ff ff       	jmp    0x1117
    201c:	45 31 f6             	xor    %r14d,%r14d
    201f:	b8 10 00 00 00       	mov    $0x10,%eax
    2024:	4c 89 f7             	mov    %r14,%rdi
    2027:	0f 05                	syscall
    2029:	48 89 c3             	mov    %rax,%rbx
    202c:	be 05 00 00 00       	mov    $0x5,%esi
    2031:	31 c0                	xor    %eax,%eax
    2033:	48 8d 3d 74 25 00 00 	lea    0x2574(%rip),%rdi        # 0x45ae
    203a:	0f 05                	syscall
    203c:	4c 89 f7             	mov    %r14,%rdi
    203f:	e8 dc df ff ff       	call   0x20
    2044:	48 83 fb ff          	cmp    $0xffffffffffffffff,%rbx
    2048:	0f 84 6c 01 00 00    	je     0x21ba
    204e:	48 85 db             	test   %rbx,%rbx
    2051:	0f 84 78 01 00 00    	je     0x21cf
    2057:	48 83 fb 01          	cmp    $0x1,%rbx
    205b:	0f 85 83 01 00 00    	jne    0x21e4
    2061:	b8 11 00 00 00       	mov    $0x11,%eax
    2066:	4c 89 f7             	mov    %r14,%rdi
    2069:	0f 05                	syscall
    206b:	48 89 c3             	mov    %rax,%rbx
    206e:	be 16 00 00 00       	mov    $0x16,%esi
    2073:	31 c0                	xor    %eax,%eax
    2075:	48 8d 3d 41 25 00 00 	lea    0x2541(%rip),%rdi        # 0x45bd
    207c:	0f 05                	syscall
    207e:	48 89 df             	mov    %rbx,%rdi
    2081:	e8 9a df ff ff       	call   0x20
    2086:	be 02 00 00 00       	mov    $0x2,%esi
    208b:	31 c0                	xor    %eax,%eax
    208d:	48 8d 3d 3f 25 00 00 	lea    0x253f(%rip),%rdi        # 0x45d3
    2094:	0f 05                	syscall
    2096:	e9 7c f0 ff ff       	jmp    0x1117
    209b:	be 0d 00 00 00       	mov    $0xd,%esi
    20a0:	31 c0                	xor    %eax,%eax
    20a2:	48 8d 3d 2f 26 00 00 	lea    0x262f(%rip),%rdi        # 0x46d8
    20a9:	0f 05                	syscall
    20ab:	31 c0                	xor    %eax,%eax
    20ad:	4c 89 f7             	mov    %r14,%rdi
    20b0:	48 89 de             	mov    %rbx,%rsi
    20b3:	0f 05                	syscall
    20b5:	be 02 00 00 00       	mov    $0x2,%esi
    20ba:	31 c0                	xor    %eax,%eax
    20bc:	48 8d 3d 22 26 00 00 	lea    0x2622(%rip),%rdi        # 0x46e5
    20c3:	0f 05                	syscall
    20c5:	e9 4d f0 ff ff       	jmp    0x1117
    20ca:	45 31 f6             	xor    %r14d,%r14d
    20cd:	b8 10 00 00 00       	mov    $0x10,%eax
    20d2:	4c 89 f7             	mov    %r14,%rdi
    20d5:	0f 05                	syscall
    20d7:	48 83 f8 ff          	cmp    $0xffffffffffffffff,%rax
    20db:	0f 84 30 01 00 00    	je     0x2211
    20e1:	48 85 c0             	test   %rax,%rax
    20e4:	0f 84 54 01 00 00    	je     0x223e
    20ea:	48 83 f8 01          	cmp    $0x1,%rax
    20ee:	0f 85 77 01 00 00    	jne    0x226b
    20f4:	be 0b 00 00 00       	mov    $0xb,%esi
    20f9:	31 c0                	xor    %eax,%eax
    20fb:	48 8d 3d 27 26 00 00 	lea    0x2627(%rip),%rdi        # 0x4729
    2102:	0f 05                	syscall
    2104:	4c 89 f7             	mov    %r14,%rdi
    2107:	e8 14 df ff ff       	call   0x20
    210c:	be 16 00 00 00       	mov    $0x16,%esi
    2111:	31 c0                	xor    %eax,%eax
    2113:	48 8d 3d 51 26 00 00 	lea    0x2651(%rip),%rdi        # 0x476b
    211a:	0f 05                	syscall
    211c:	e9 f6 ef ff ff       	jmp    0x1117
    2121:	b8 0b 00 00 00       	mov    $0xb,%eax
    2126:	0f 05                	syscall
    2128:	48 89 c3             	mov    %rax,%rbx
    212b:	85 db                	test   %ebx,%ebx
    212d:	0f 84 9e 01 00 00    	je     0x22d1
    2133:	be 0e 00 00 00       	mov    $0xe,%esi
    2138:	31 c0                	xor    %eax,%eax
    213a:	48 8d 3d 9d 21 00 00 	lea    0x219d(%rip),%rdi        # 0x42de
    2141:	0f 05                	syscall
    2143:	48 63 fb             	movslq %ebx,%rdi
    2146:	48 85 ff             	test   %rdi,%rdi
    2149:	79 19                	jns    0x2164
    214b:	be 01 00 00 00       	mov    $0x1,%esi
    2150:	31 c0                	xor    %eax,%eax
    2152:	48 89 fb             	mov    %rdi,%rbx
    2155:	48 8d 3d ae 24 00 00 	lea    0x24ae(%rip),%rdi        # 0x460a
    215c:	0f 05                	syscall
    215e:	48 89 df             	mov    %rbx,%rdi
    2161:	48 f7 df             	neg    %rdi
    2164:	e8 b7 de ff ff       	call   0x20
    2169:	be 01 00 00 00       	mov    $0x1,%esi
    216e:	31 c0                	xor    %eax,%eax
    2170:	48 8d 3d 75 21 00 00 	lea    0x2175(%rip),%rdi        # 0x42ec
    2177:	0f 05                	syscall
    2179:	e9 99 ef ff ff       	jmp    0x1117
    217e:	48 89 d8             	mov    %rbx,%rax
    2181:	41 bf 01 00 00 00    	mov    $0x1,%r15d
    2187:	48 83 c0 05          	add    $0x5,%rax
    218b:	0f 82 ac fc ff ff    	jb     0x1e3d
    2191:	8b 4d 00             	mov    0x0(%rbp),%ecx
    2194:	0f c9                	bswap  %ecx
    2196:	81 f9 74 69 72 77    	cmp    $0x77726974,%ecx
    219c:	0f 85 44 01 00 00    	jne    0x22e6
    21a2:	0f b6 55 04          	movzbl 0x4(%rbp),%edx
    21a6:	b9 65 00 00 00       	mov    $0x65,%ecx
    21ab:	29 d1                	sub    %edx,%ecx
    21ad:	85 c9                	test   %ecx,%ecx
    21af:	0f 85 88 fc ff ff    	jne    0x1e3d
    21b5:	e9 45 01 00 00       	jmp    0x22ff
    21ba:	be 0c 00 00 00       	mov    $0xc,%esi
    21bf:	31 c0                	xor    %eax,%eax
    21c1:	48 8d 3d 0d 24 00 00 	lea    0x240d(%rip),%rdi        # 0x45d5
    21c8:	0f 05                	syscall
    21ca:	e9 48 ef ff ff       	jmp    0x1117
    21cf:	be 0a 00 00 00       	mov    $0xa,%esi
    21d4:	31 c0                	xor    %eax,%eax
    21d6:	48 8d 3d d6 23 00 00 	lea    0x23d6(%rip),%rdi        # 0x45b3
    21dd:	0f 05                	syscall
    21df:	e9 33 ef ff ff       	jmp    0x1117
    21e4:	be 11 00 00 00       	mov    $0x11,%esi
    21e9:	31 c0                	xor    %eax,%eax
    21eb:	48 8d 3d ef 23 00 00 	lea    0x23ef(%rip),%rdi        # 0x45e1
    21f2:	0f 05                	syscall
    21f4:	48 89 df             	mov    %rbx,%rdi
    21f7:	e8 24 de ff ff       	call   0x20
    21fc:	be 01 00 00 00       	mov    $0x1,%esi
    2201:	31 c0                	xor    %eax,%eax
    2203:	48 8d 3d e2 20 00 00 	lea    0x20e2(%rip),%rdi        # 0x42ec
    220a:	0f 05                	syscall
    220c:	e9 06 ef ff ff       	jmp    0x1117
    2211:	be 0b 00 00 00       	mov    $0xb,%esi
    2216:	31 c0                	xor    %eax,%eax
    2218:	48 8d 3d 0a 25 00 00 	lea    0x250a(%rip),%rdi        # 0x4729
    221f:	0f 05                	syscall
    2221:	4c 89 f7             	mov    %r14,%rdi
    2224:	e8 f7 dd ff ff       	call   0x20
    2229:	be 0b 00 00 00       	mov    $0xb,%esi
    222e:	31 c0                	xor    %eax,%eax
    2230:	48 8d 3d 4a 25 00 00 	lea    0x254a(%rip),%rdi        # 0x4781
    2237:	0f 05                	syscall
    2239:	e9 d9 ee ff ff       	jmp    0x1117
    223e:	be 0b 00 00 00       	mov    $0xb,%esi
    2243:	31 c0                	xor    %eax,%eax
    2245:	48 8d 3d dd 24 00 00 	lea    0x24dd(%rip),%rdi        # 0x4729
    224c:	0f 05                	syscall
    224e:	4c 89 f7             	mov    %r14,%rdi
    2251:	e8 ca dd ff ff       	call   0x20
    2256:	be 37 00 00 00       	mov    $0x37,%esi
    225b:	31 c0                	xor    %eax,%eax
    225d:	48 8d 3d d0 24 00 00 	lea    0x24d0(%rip),%rdi        # 0x4734
    2264:	0f 05                	syscall
    2266:	e9 ac ee ff ff       	jmp    0x1117
    226b:	be 1e 00 00 00       	mov    $0x1e,%esi
    2270:	31 c0                	xor    %eax,%eax
    2272:	48 8d 3d 13 25 00 00 	lea    0x2513(%rip),%rdi        # 0x478c
    2279:	0f 05                	syscall
    227b:	4c 89 f7             	mov    %r14,%rdi
    227e:	e8 9d dd ff ff       	call   0x20
    2283:	be 01 00 00 00       	mov    $0x1,%esi
    2288:	31 c0                	xor    %eax,%eax
    228a:	48 8d 3d 5b 20 00 00 	lea    0x205b(%rip),%rdi        # 0x42ec
    2291:	0f 05                	syscall
    2293:	e9 7f ee ff ff       	jmp    0x1117
    2298:	b8 02 00 00 00       	mov    $0x2,%eax
    229d:	4c 89 f7             	mov    %r14,%rdi
    22a0:	0f 05                	syscall
    22a2:	be 15 00 00 00       	mov    $0x15,%esi
    22a7:	31 c0                	xor    %eax,%eax
    22a9:	48 8d 3d 52 24 00 00 	lea    0x2452(%rip),%rdi        # 0x4702
    22b0:	0f 05                	syscall
    22b2:	31 c0                	xor    %eax,%eax
    22b4:	4c 89 ef             	mov    %r13,%rdi
    22b7:	4c 89 e6             	mov    %r12,%rsi
    22ba:	0f 05                	syscall
    22bc:	be 02 00 00 00       	mov    $0x2,%esi
    22c1:	31 c0                	xor    %eax,%eax
    22c3:	48 8d 3d 1b 24 00 00 	lea    0x241b(%rip),%rdi        # 0x46e5
    22ca:	0f 05                	syscall
    22cc:	e9 46 ee ff ff       	jmp    0x1117
    22d1:	be 1e 00 00 00       	mov    $0x1e,%esi
    22d6:	31 c0                	xor    %eax,%eax
    22d8:	48 8d 3d e1 1f 00 00 	lea    0x1fe1(%rip),%rdi        # 0x42c0
    22df:	0f 05                	syscall
    22e1:	e9 31 ee ff ff       	jmp    0x1117
    22e6:	81 f9 75 69 72 77    	cmp    $0x77726975,%ecx
    22ec:	b9 00 00 00 00       	mov    $0x0,%ecx
    22f1:	83 d1 ff             	adc    $0xffffffff,%ecx
    22f4:	83 c9 01             	or     $0x1,%ecx
    22f7:	85 c9                	test   %ecx,%ecx
    22f9:	0f 85 3e fb ff ff    	jne    0x1e3d
    22ff:	4c 8d 7d 05          	lea    0x5(%rbp),%r15
    2303:	48 85 db             	test   %rbx,%rbx
    2306:	0f 84 31 fb ff ff    	je     0x1e3d
    230c:	48 01 c5             	add    %rax,%rbp
    230f:	31 c0                	xor    %eax,%eax
    2311:	66 66 66 66 66 66 2e 	data16 data16 data16 data16 data16 cs nopw 0x0(%rax,%rax,1)
    2318:	0f 1f 84 00 00 00 00 
    231f:	00 
    2320:	41 0f b6 0f          	movzbl (%r15),%ecx
    2324:	48 83 f9 20          	cmp    $0x20,%rcx
    2328:	77 1c                	ja     0x2346
    232a:	48 0f a3 ce          	bt     %rcx,%rsi
    232e:	73 16                	jae    0x2346
    2330:	49 ff c7             	inc    %r15
    2333:	48 ff c0             	inc    %rax
    2336:	49 ff c8             	dec    %r8
    2339:	48 39 c3             	cmp    %rax,%rbx
    233c:	75 e2                	jne    0x2320
    233e:	49 89 ef             	mov    %rbp,%r15
    2341:	e9 f7 fa ff ff       	jmp    0x1e3d
    2346:	48 29 c3             	sub    %rax,%rbx
    2349:	4c 01 fb             	add    %r15,%rbx
    234c:	80 f9 20             	cmp    $0x20,%cl
    234f:	77 20                	ja     0x2371
    2351:	0f b6 c1             	movzbl %cl,%eax
    2354:	48 0f a3 c6          	bt     %rax,%rsi
    2358:	73 17                	jae    0x2371
    235a:	49 83 e8 01          	sub    $0x1,%r8
    235e:	0f 82 43 01 00 00    	jb     0x24a7
    2364:	41 0f b6 4f 01       	movzbl 0x1(%r15),%ecx
    2369:	49 ff c7             	inc    %r15
    236c:	80 f9 20             	cmp    $0x20,%cl
    236f:	76 e0                	jbe    0x2351
    2371:	49 ff c0             	inc    %r8
    2374:	4d 89 c6             	mov    %r8,%r14
    2377:	4d 29 e6             	sub    %r12,%r14
    237a:	0f 82 cc fa ff ff    	jb     0x1e4c
    2380:	4c 89 c3             	mov    %r8,%rbx
    2383:	4c 89 ef             	mov    %r13,%rdi
    2386:	4c 89 fe             	mov    %r15,%rsi
    2389:	4c 89 e2             	mov    %r12,%rdx
    238c:	ff 15 96 34 00 00    	call   *0x3496(%rip)        # 0x5828
    2392:	85 c0                	test   %eax,%eax
    2394:	74 14                	je     0x23aa
    2396:	49 89 de             	mov    %rbx,%r14
    2399:	48 be 00 36 00 00 01 	movabs $0x100003600,%rsi
    23a0:	00 00 00 
    23a3:	4d 85 f6             	test   %r14,%r14
    23a6:	75 2c                	jne    0x23d4
    23a8:	eb 51                	jmp    0x23fb
    23aa:	4d 85 e4             	test   %r12,%r12
    23ad:	74 13                	je     0x23c2
    23af:	48 89 d9             	mov    %rbx,%rcx
    23b2:	4c 39 e3             	cmp    %r12,%rbx
    23b5:	76 0b                	jbe    0x23c2
    23b7:	43 80 3c 27 c0       	cmpb   $0xc0,(%r15,%r12,1)
    23bc:	0f 8c 96 01 00 00    	jl     0x2558
    23c2:	4d 01 e7             	add    %r12,%r15
    23c5:	48 be 00 36 00 00 01 	movabs $0x100003600,%rsi
    23cc:	00 00 00 
    23cf:	4d 85 f6             	test   %r14,%r14
    23d2:	74 27                	je     0x23fb
    23d4:	4b 8d 04 37          	lea    (%r15,%r14,1),%rax
    23d8:	0f 1f 84 00 00 00 00 	nopl   0x0(%rax,%rax,1)
    23df:	00 
    23e0:	41 0f b6 0f          	movzbl (%r15),%ecx
    23e4:	48 83 f9 20          	cmp    $0x20,%rcx
    23e8:	77 14                	ja     0x23fe
    23ea:	48 0f a3 ce          	bt     %rcx,%rsi
    23ee:	73 0e                	jae    0x23fe
    23f0:	49 ff c7             	inc    %r15
    23f3:	49 ff ce             	dec    %r14
    23f6:	75 e8                	jne    0x23e0
    23f8:	49 89 c7             	mov    %rax,%r15
    23fb:	45 31 f6             	xor    %r14d,%r14d
    23fe:	b8 0d 00 00 00       	mov    $0xd,%eax
    2403:	4c 89 ef             	mov    %r13,%rdi
    2406:	4c 89 e6             	mov    %r12,%rsi
    2409:	4c 89 fa             	mov    %r15,%rdx
    240c:	4d 89 f2             	mov    %r14,%r10
    240f:	0f 05                	syscall
    2411:	48 89 c3             	mov    %rax,%rbx
    2414:	85 db                	test   %ebx,%ebx
    2416:	74 48                	je     0x2460
    2418:	be 0d 00 00 00       	mov    $0xd,%esi
    241d:	31 c0                	xor    %eax,%eax
    241f:	48 8d 3d 24 26 00 00 	lea    0x2624(%rip),%rdi        # 0x4a4a
    2426:	0f 05                	syscall
    2428:	48 63 db             	movslq %ebx,%rbx
    242b:	48 85 db             	test   %rbx,%rbx
    242e:	79 13                	jns    0x2443
    2430:	be 01 00 00 00       	mov    $0x1,%esi
    2435:	31 c0                	xor    %eax,%eax
    2437:	48 8d 3d cc 21 00 00 	lea    0x21cc(%rip),%rdi        # 0x460a
    243e:	0f 05                	syscall
    2440:	48 f7 db             	neg    %rbx
    2443:	48 89 df             	mov    %rbx,%rdi
    2446:	e8 d5 db ff ff       	call   0x20
    244b:	be 01 00 00 00       	mov    $0x1,%esi
    2450:	31 c0                	xor    %eax,%eax
    2452:	48 8d 3d 93 1e 00 00 	lea    0x1e93(%rip),%rdi        # 0x42ec
    2459:	0f 05                	syscall
    245b:	e9 b7 ec ff ff       	jmp    0x1117
    2460:	be 0b 00 00 00       	mov    $0xb,%esi
    2465:	31 c0                	xor    %eax,%eax
    2467:	48 8d 3d bb 25 00 00 	lea    0x25bb(%rip),%rdi        # 0x4a29
    246e:	0f 05                	syscall
    2470:	4c 89 f7             	mov    %r14,%rdi
    2473:	e8 a8 db ff ff       	call   0x20
    2478:	be 13 00 00 00       	mov    $0x13,%esi
    247d:	31 c0                	xor    %eax,%eax
    247f:	48 8d 3d ae 25 00 00 	lea    0x25ae(%rip),%rdi        # 0x4a34
    2486:	0f 05                	syscall
    2488:	31 c0                	xor    %eax,%eax
    248a:	4c 89 ef             	mov    %r13,%rdi
    248d:	4c 89 e6             	mov    %r12,%rsi
    2490:	0f 05                	syscall
    2492:	be 03 00 00 00       	mov    $0x3,%esi
    2497:	31 c0                	xor    %eax,%eax
    2499:	48 8d 3d a7 25 00 00 	lea    0x25a7(%rip),%rdi        # 0x4a47
    24a0:	0f 05                	syscall
    24a2:	e9 70 ec ff ff       	jmp    0x1117
    24a7:	49 89 df             	mov    %rbx,%r15
    24aa:	e9 8e f9 ff ff       	jmp    0x1e3d
    24af:	48 8d 0d fa 33 00 00 	lea    0x33fa(%rip),%rcx        # 0x58b0
    24b6:	48 89 f7             	mov    %rsi,%rdi
    24b9:	4c 89 f6             	mov    %r14,%rsi
    24bc:	4c 89 fa             	mov    %r15,%rdx
    24bf:	ff 15 6b 33 00 00    	call   *0x336b(%rip)        # 0x5830
    24c5:	48 8d 3d 21 23 00 00 	lea    0x2321(%rip),%rdi        # 0x47ed
    24cc:	be 11 00 00 00       	mov    $0x11,%esi
    24d1:	31 c0                	xor    %eax,%eax
    24d3:	0f 05                	syscall
    24d5:	b8 07 00 00 00       	mov    $0x7,%eax
    24da:	0f 05                	syscall
    24dc:	0f 1f 40 00          	nopl   0x0(%rax)
    24e0:	eb fe                	jmp    0x24e0
    24e2:	48 8d 0d 3f 34 00 00 	lea    0x343f(%rip),%rcx        # 0x5928
    24e9:	ba 08 00 00 00       	mov    $0x8,%edx
    24ee:	31 ff                	xor    %edi,%edi
    24f0:	4c 89 ce             	mov    %r9,%rsi
    24f3:	ff 15 37 33 00 00    	call   *0x3337(%rip)        # 0x5830
    24f9:	48 8d 0d c8 33 00 00 	lea    0x33c8(%rip),%rcx        # 0x58c8
    2500:	48 89 d6             	mov    %rdx,%rsi
    2503:	ba 2f 00 00 00       	mov    $0x2f,%edx
    2508:	31 ff                	xor    %edi,%edi
    250a:	ff 15 20 33 00 00    	call   *0x3320(%rip)        # 0x5830
    2510:	48 8d 15 c9 33 00 00 	lea    0x33c9(%rip),%rdx        # 0x58e0
    2517:	be 10 00 00 00       	mov    $0x10,%esi
    251c:	ff 15 16 33 00 00    	call   *0x3316(%rip)        # 0x5838
    2522:	48 8d 15 cf 33 00 00 	lea    0x33cf(%rip),%rdx        # 0x58f8
    2529:	be 10 00 00 00       	mov    $0x10,%esi
    252e:	ff 15 04 33 00 00    	call   *0x3304(%rip)        # 0x5838
    2534:	48 8d 15 5d 33 00 00 	lea    0x335d(%rip),%rdx        # 0x5898
    253b:	4c 89 f7             	mov    %r14,%rdi
    253e:	4c 89 fe             	mov    %r15,%rsi
    2541:	ff 15 f1 32 00 00    	call   *0x32f1(%rip)        # 0x5838
    2547:	48 8d 15 c2 33 00 00 	lea    0x33c2(%rip),%rdx        # 0x5910
    254e:	31 ff                	xor    %edi,%edi
    2550:	31 f6                	xor    %esi,%esi
    2552:	ff 15 e0 32 00 00    	call   *0x32e0(%rip)        # 0x5838
    2558:	4c 8d 05 e1 33 00 00 	lea    0x33e1(%rip),%r8        # 0x5940
    255f:	4c 89 ff             	mov    %r15,%rdi
    2562:	48 89 ce             	mov    %rcx,%rsi
    2565:	4c 89 e2             	mov    %r12,%rdx
    2568:	ff 15 d2 32 00 00    	call   *0x32d2(%rip)        # 0x5840
    256e:	cc                   	int3
    256f:	cc                   	int3
    2570:	55                   	push   %rbp
    2571:	48 89 e5             	mov    %rsp,%rbp
    2574:	41 56                	push   %r14
    2576:	53                   	push   %rbx
    2577:	48 83 ec 20          	sub    $0x20,%rsp
    257b:	83 fe 27             	cmp    $0x27,%esi
    257e:	77 1c                	ja     0x259c
    2580:	89 f0                	mov    %esi,%eax
    2582:	48 8d 0d 9b 25 00 00 	lea    0x259b(%rip),%rcx        # 0x4b24
    2589:	48 63 04 81          	movslq (%rcx,%rax,4),%rax
    258d:	48 01 c8             	add    %rcx,%rax
    2590:	ff e0                	jmp    *%rax
    2592:	66 c7 07 5c 30       	movw   $0x305c,(%rdi)
    2597:	e9 f8 01 00 00       	jmp    0x2794
    259c:	83 fe 5c             	cmp    $0x5c,%esi
    259f:	75 0a                	jne    0x25ab
    25a1:	66 c7 07 5c 5c       	movw   $0x5c5c,(%rdi)
    25a6:	e9 e9 01 00 00       	jmp    0x2794
    25ab:	81 fe 00 03 00 00    	cmp    $0x300,%esi
    25b1:	0f 93 c0             	setae  %al
    25b4:	84 d0                	test   %dl,%al
    25b6:	0f 84 0f 01 00 00    	je     0x26cb
    25bc:	48 89 fb             	mov    %rdi,%rbx
    25bf:	89 f7                	mov    %esi,%edi
    25c1:	49 89 f6             	mov    %rsi,%r14
    25c4:	ff 15 96 32 00 00    	call   *0x3296(%rip)        # 0x5860
    25ca:	4c 89 f6             	mov    %r14,%rsi
    25cd:	48 89 df             	mov    %rbx,%rdi
    25d0:	84 c0                	test   %al,%al
    25d2:	0f 84 f3 00 00 00    	je     0x26cb
    25d8:	89 f0                	mov    %esi,%eax
    25da:	83 c8 01             	or     $0x1,%eax
    25dd:	0f bd c8             	bsr    %eax,%ecx
    25e0:	83 f1 1c             	xor    $0x1c,%ecx
    25e3:	c1 e9 02             	shr    $0x2,%ecx
    25e6:	48 8d 41 fe          	lea    -0x2(%rcx),%rax
    25ea:	c6 45 e8 00          	movb   $0x0,-0x18(%rbp)
    25ee:	66 c7 45 e6 00 00    	movw   $0x0,-0x1a(%rbp)
    25f4:	41 89 f0             	mov    %esi,%r8d
    25f7:	41 c1 e8 14          	shr    $0x14,%r8d
    25fb:	48 8d 15 e2 28 00 00 	lea    0x28e2(%rip),%rdx        # 0x4ee4
    2602:	45 0f b6 04 10       	movzbl (%r8,%rdx,1),%r8d
    2607:	44 88 45 e9          	mov    %r8b,-0x17(%rbp)
    260b:	41 89 f0             	mov    %esi,%r8d
    260e:	41 c1 e8 10          	shr    $0x10,%r8d
    2612:	41 83 e0 0f          	and    $0xf,%r8d
    2616:	45 0f b6 04 10       	movzbl (%r8,%rdx,1),%r8d
    261b:	44 88 45 ea          	mov    %r8b,-0x16(%rbp)
    261f:	41 89 f0             	mov    %esi,%r8d
    2622:	41 c1 e8 0c          	shr    $0xc,%r8d
    2626:	41 83 e0 0f          	and    $0xf,%r8d
    262a:	45 0f b6 04 10       	movzbl (%r8,%rdx,1),%r8d
    262f:	44 88 45 eb          	mov    %r8b,-0x15(%rbp)
    2633:	41 89 f0             	mov    %esi,%r8d
    2636:	41 c1 e8 08          	shr    $0x8,%r8d
    263a:	41 83 e0 0f          	and    $0xf,%r8d
    263e:	45 0f b6 04 10       	movzbl (%r8,%rdx,1),%r8d
    2643:	44 88 45 ec          	mov    %r8b,-0x14(%rbp)
    2647:	41 89 f0             	mov    %esi,%r8d
    264a:	41 c1 e8 04          	shr    $0x4,%r8d
    264e:	41 83 e0 0f          	and    $0xf,%r8d
    2652:	45 0f b6 04 10       	movzbl (%r8,%rdx,1),%r8d
    2657:	44 88 45 ed          	mov    %r8b,-0x13(%rbp)
    265b:	83 e6 0f             	and    $0xf,%esi
    265e:	0f b6 14 16          	movzbl (%rsi,%rdx,1),%edx
    2662:	88 55 ee             	mov    %dl,-0x12(%rbp)
    2665:	c6 45 ef 7d          	movb   $0x7d,-0x11(%rbp)
    2669:	66 c7 44 0d e4 5c 75 	movw   $0x755c,-0x1c(%rbp,%rcx,1)
    2670:	c6 44 0d e6 7b       	movb   $0x7b,-0x1a(%rbp,%rcx,1)
    2675:	0f b7 4d ee          	movzwl -0x12(%rbp),%ecx
    2679:	66 89 4f 08          	mov    %cx,0x8(%rdi)
    267d:	48 8b 4d e6          	mov    -0x1a(%rbp),%rcx
    2681:	48 89 0f             	mov    %rcx,(%rdi)
    2684:	e9 02 01 00 00       	jmp    0x278b
    2689:	66 c7 07 5c 6e       	movw   $0x6e5c,(%rdi)
    268e:	e9 01 01 00 00       	jmp    0x2794
    2693:	f7 c2 00 01 00 00    	test   $0x100,%edx
    2699:	74 30                	je     0x26cb
    269b:	66 c7 07 5c 27       	movw   $0x275c,(%rdi)
    26a0:	e9 ef 00 00 00       	jmp    0x2794
    26a5:	66 c7 07 5c 72       	movw   $0x725c,(%rdi)
    26aa:	e9 e5 00 00 00       	jmp    0x2794
    26af:	66 c7 07 5c 74       	movw   $0x745c,(%rdi)
    26b4:	e9 db 00 00 00       	jmp    0x2794
    26b9:	81 e2 ff ff ff 00    	and    $0xffffff,%edx
    26bf:	81 fa 00 00 01 00    	cmp    $0x10000,%edx
    26c5:	0f 83 c4 00 00 00    	jae    0x278f
    26cb:	48 89 fb             	mov    %rdi,%rbx
    26ce:	49 89 f6             	mov    %rsi,%r14
    26d1:	89 f7                	mov    %esi,%edi
    26d3:	ff 15 8f 31 00 00    	call   *0x318f(%rip)        # 0x5868
    26d9:	84 c0                	test   %al,%al
    26db:	74 0f                	je     0x26ec
    26dd:	48 89 df             	mov    %rbx,%rdi
    26e0:	44 89 33             	mov    %r14d,(%rbx)
    26e3:	b1 81                	mov    $0x81,%cl
    26e5:	b0 80                	mov    $0x80,%al
    26e7:	e9 b4 00 00 00       	jmp    0x27a0
    26ec:	4c 89 f2             	mov    %r14,%rdx
    26ef:	89 d0                	mov    %edx,%eax
    26f1:	83 c8 01             	or     $0x1,%eax
    26f4:	0f bd c8             	bsr    %eax,%ecx
    26f7:	83 f1 1c             	xor    $0x1c,%ecx
    26fa:	c1 e9 02             	shr    $0x2,%ecx
    26fd:	48 8d 41 fe          	lea    -0x2(%rcx),%rax
    2701:	c6 45 de 00          	movb   $0x0,-0x22(%rbp)
    2705:	66 c7 45 dc 00 00    	movw   $0x0,-0x24(%rbp)
    270b:	89 d7                	mov    %edx,%edi
    270d:	c1 ef 14             	shr    $0x14,%edi
    2710:	48 8d 35 cd 27 00 00 	lea    0x27cd(%rip),%rsi        # 0x4ee4
    2717:	0f b6 3c 37          	movzbl (%rdi,%rsi,1),%edi
    271b:	40 88 7d df          	mov    %dil,-0x21(%rbp)
    271f:	89 d7                	mov    %edx,%edi
    2721:	c1 ef 10             	shr    $0x10,%edi
    2724:	83 e7 0f             	and    $0xf,%edi
    2727:	0f b6 3c 37          	movzbl (%rdi,%rsi,1),%edi
    272b:	40 88 7d e0          	mov    %dil,-0x20(%rbp)
    272f:	89 d7                	mov    %edx,%edi
    2731:	c1 ef 0c             	shr    $0xc,%edi
    2734:	83 e7 0f             	and    $0xf,%edi
    2737:	0f b6 3c 37          	movzbl (%rdi,%rsi,1),%edi
    273b:	40 88 7d e1          	mov    %dil,-0x1f(%rbp)
    273f:	89 d7                	mov    %edx,%edi
    2741:	c1 ef 08             	shr    $0x8,%edi
    2744:	83 e7 0f             	and    $0xf,%edi
    2747:	0f b6 3c 37          	movzbl (%rdi,%rsi,1),%edi
    274b:	40 88 7d e2          	mov    %dil,-0x1e(%rbp)
    274f:	89 d7                	mov    %edx,%edi
    2751:	c1 ef 04             	shr    $0x4,%edi
    2754:	83 e7 0f             	and    $0xf,%edi
    2757:	0f b6 3c 37          	movzbl (%rdi,%rsi,1),%edi
    275b:	40 88 7d e3          	mov    %dil,-0x1d(%rbp)
    275f:	83 e2 0f             	and    $0xf,%edx
    2762:	0f b6 14 32          	movzbl (%rdx,%rsi,1),%edx
    2766:	88 55 e4             	mov    %dl,-0x1c(%rbp)
    2769:	c6 45 e5 7d          	movb   $0x7d,-0x1b(%rbp)
    276d:	66 c7 44 0d da 5c 75 	movw   $0x755c,-0x26(%rbp,%rcx,1)
    2774:	c6 44 0d dc 7b       	movb   $0x7b,-0x24(%rbp,%rcx,1)
    2779:	0f b7 4d e4          	movzwl -0x1c(%rbp),%ecx
    277d:	48 89 df             	mov    %rbx,%rdi
    2780:	66 89 4b 08          	mov    %cx,0x8(%rbx)
    2784:	48 8b 4d dc          	mov    -0x24(%rbp),%rcx
    2788:	48 89 0b             	mov    %rcx,(%rbx)
    278b:	b1 0a                	mov    $0xa,%cl
    278d:	eb 11                	jmp    0x27a0
    278f:	66 c7 07 5c 22       	movw   $0x225c,(%rdi)
    2794:	48 c7 47 02 00 00 00 	movq   $0x0,0x2(%rdi)
    279b:	00 
    279c:	b1 02                	mov    $0x2,%cl
    279e:	31 c0                	xor    %eax,%eax
    27a0:	88 47 0c             	mov    %al,0xc(%rdi)
    27a3:	88 4f 0d             	mov    %cl,0xd(%rdi)
    27a6:	48 83 c4 20          	add    $0x20,%rsp
    27aa:	5b                   	pop    %rbx
    27ab:	41 5e                	pop    %r14
    27ad:	5d                   	pop    %rbp
    27ae:	c3                   	ret
    27af:	cc                   	int3
    27b0:	55                   	push   %rbp
    27b1:	48 89 e5             	mov    %rsp,%rbp
    27b4:	41 57                	push   %r15
    27b6:	41 56                	push   %r14
    27b8:	41 55                	push   %r13
    27ba:	41 54                	push   %r12
    27bc:	53                   	push   %rbx
    27bd:	48 83 ec 48          	sub    $0x48,%rsp
    27c1:	4d 89 cd             	mov    %r9,%r13
    27c4:	4c 89 45 c0          	mov    %r8,-0x40(%rbp)
    27c8:	49 89 d6             	mov    %rdx,%r14
    27cb:	49 89 fc             	mov    %rdi,%r12
    27ce:	44 8b 7f 10          	mov    0x10(%rdi),%r15d
    27d2:	44 89 f8             	mov    %r15d,%eax
    27d5:	25 00 00 20 00       	and    $0x200000,%eax
    27da:	bf 00 00 11 00       	mov    $0x110000,%edi
    27df:	ba 2b 00 00 00       	mov    $0x2b,%edx
    27e4:	0f 44 d7             	cmove  %edi,%edx
    27e7:	c1 e8 15             	shr    $0x15,%eax
    27ea:	85 f6                	test   %esi,%esi
    27ec:	be 2d 00 00 00       	mov    $0x2d,%esi
    27f1:	0f 45 f2             	cmovne %edx,%esi
    27f4:	89 75 d4             	mov    %esi,-0x2c(%rbp)
    27f7:	41 b9 01 00 00 00    	mov    $0x1,%r9d
    27fd:	4c 0f 45 c8          	cmovne %rax,%r9
    2801:	4d 01 e9             	add    %r13,%r9
    2804:	41 f7 c7 00 00 80 00 	test   $0x800000,%r15d
    280b:	48 89 4d b8          	mov    %rcx,-0x48(%rbp)
    280f:	75 5b                	jne    0x286c
    2811:	45 31 f6             	xor    %r14d,%r14d
    2814:	41 0f b7 5c 24 14    	movzwl 0x14(%r12),%ebx
    281a:	49 39 d9             	cmp    %rbx,%r9
    281d:	0f 82 04 01 00 00    	jb     0x2927
    2823:	4d 8b 3c 24          	mov    (%r12),%r15
    2827:	4d 8b 64 24 08       	mov    0x8(%r12),%r12
    282c:	4c 89 ff             	mov    %r15,%rdi
    282f:	4c 89 e6             	mov    %r12,%rsi
    2832:	8b 55 d4             	mov    -0x2c(%rbp),%edx
    2835:	4c 89 f1             	mov    %r14,%rcx
    2838:	4c 8b 45 b8          	mov    -0x48(%rbp),%r8
    283c:	e8 1f 11 00 00       	call   0x3960
    2841:	89 c1                	mov    %eax,%ecx
    2843:	b0 01                	mov    $0x1,%al
    2845:	84 c9                	test   %cl,%cl
    2847:	0f 85 6b 02 00 00    	jne    0x2ab8
    284d:	49 8b 44 24 18       	mov    0x18(%r12),%rax
    2852:	4c 89 ff             	mov    %r15,%rdi
    2855:	48 8b 75 c0          	mov    -0x40(%rbp),%rsi
    2859:	4c 89 ea             	mov    %r13,%rdx
    285c:	48 83 c4 48          	add    $0x48,%rsp
    2860:	5b                   	pop    %rbx
    2861:	41 5c                	pop    %r12
    2863:	41 5d                	pop    %r13
    2865:	41 5e                	pop    %r14
    2867:	41 5f                	pop    %r15
    2869:	5d                   	pop    %rbp
    286a:	ff e0                	jmp    *%rax
    286c:	48 83 f9 20          	cmp    $0x20,%rcx
    2870:	73 18                	jae    0x288a
    2872:	48 85 c9             	test   %rcx,%rcx
    2875:	74 27                	je     0x289e
    2877:	41 89 ca             	mov    %ecx,%r10d
    287a:	41 83 e2 03          	and    $0x3,%r10d
    287e:	48 83 f9 04          	cmp    $0x4,%rcx
    2882:	73 1e                	jae    0x28a2
    2884:	31 d2                	xor    %edx,%edx
    2886:	31 c0                	xor    %eax,%eax
    2888:	eb 6e                	jmp    0x28f8
    288a:	4c 89 f7             	mov    %r14,%rdi
    288d:	48 89 ce             	mov    %rcx,%rsi
    2890:	4c 89 cb             	mov    %r9,%rbx
    2893:	ff 15 df 2f 00 00    	call   *0x2fdf(%rip)        # 0x5878
    2899:	49 89 d9             	mov    %rbx,%r9
    289c:	eb 77                	jmp    0x2915
    289e:	31 c0                	xor    %eax,%eax
    28a0:	eb 73                	jmp    0x2915
    28a2:	89 ce                	mov    %ecx,%esi
    28a4:	83 e6 1c             	and    $0x1c,%esi
    28a7:	31 d2                	xor    %edx,%edx
    28a9:	31 c0                	xor    %eax,%eax
    28ab:	0f 1f 44 00 00       	nopl   0x0(%rax,%rax,1)
    28b0:	31 ff                	xor    %edi,%edi
    28b2:	41 80 3c 16 c0       	cmpb   $0xc0,(%r14,%rdx,1)
    28b7:	40 0f 9d c7          	setge  %dil
    28bb:	48 01 c7             	add    %rax,%rdi
    28be:	31 c0                	xor    %eax,%eax
    28c0:	41 80 7c 16 01 c0    	cmpb   $0xc0,0x1(%r14,%rdx,1)
    28c6:	0f 9d c0             	setge  %al
    28c9:	45 31 c0             	xor    %r8d,%r8d
    28cc:	41 80 7c 16 02 c0    	cmpb   $0xc0,0x2(%r14,%rdx,1)
    28d2:	41 0f 9d c0          	setge  %r8b
    28d6:	49 01 c0             	add    %rax,%r8
    28d9:	49 01 f8             	add    %rdi,%r8
    28dc:	31 c0                	xor    %eax,%eax
    28de:	41 80 7c 16 03 c0    	cmpb   $0xc0,0x3(%r14,%rdx,1)
    28e4:	0f 9d c0             	setge  %al
    28e7:	4c 01 c0             	add    %r8,%rax
    28ea:	48 83 c2 04          	add    $0x4,%rdx
    28ee:	48 39 d6             	cmp    %rdx,%rsi
    28f1:	75 bd                	jne    0x28b0
    28f3:	4d 85 d2             	test   %r10,%r10
    28f6:	74 1d                	je     0x2915
    28f8:	4c 01 f2             	add    %r14,%rdx
    28fb:	31 f6                	xor    %esi,%esi
    28fd:	0f 1f 00             	nopl   (%rax)
    2900:	31 ff                	xor    %edi,%edi
    2902:	80 3c 32 c0          	cmpb   $0xc0,(%rdx,%rsi,1)
    2906:	40 0f 9d c7          	setge  %dil
    290a:	48 01 f8             	add    %rdi,%rax
    290d:	48 ff c6             	inc    %rsi
    2910:	49 39 f2             	cmp    %rsi,%r10
    2913:	75 eb                	jne    0x2900
    2915:	49 01 c1             	add    %rax,%r9
    2918:	41 0f b7 5c 24 14    	movzwl 0x14(%r12),%ebx
    291e:	49 39 d9             	cmp    %rbx,%r9
    2921:	0f 83 fc fe ff ff    	jae    0x2823
    2927:	41 f7 c7 00 00 00 01 	test   $0x1000000,%r15d
    292e:	4c 89 6d a8          	mov    %r13,-0x58(%rbp)
    2932:	4c 89 4d a0          	mov    %r9,-0x60(%rbp)
    2936:	75 28                	jne    0x2960
    2938:	89 da                	mov    %ebx,%edx
    293a:	44 29 ca             	sub    %r9d,%edx
    293d:	44 89 f8             	mov    %r15d,%eax
    2940:	c1 e8 1d             	shr    $0x1d,%eax
    2943:	83 e0 03             	and    $0x3,%eax
    2946:	48 8d 0d 77 22 00 00 	lea    0x2277(%rip),%rcx        # 0x4bc4
    294d:	48 63 04 81          	movslq (%rcx,%rax,4),%rax
    2951:	48 01 c8             	add    %rcx,%rax
    2954:	89 55 b4             	mov    %edx,-0x4c(%rbp)
    2957:	ff e0                	jmp    *%rax
    2959:	89 d0                	mov    %edx,%eax
    295b:	e9 99 00 00 00       	jmp    0x29f9
    2960:	49 8b 44 24 10       	mov    0x10(%r12),%rax
    2965:	48 89 45 c8          	mov    %rax,-0x38(%rbp)
    2969:	25 00 00 e0 9f       	and    $0x9fe00000,%eax
    296e:	0d 30 00 00 20       	or     $0x20000030,%eax
    2973:	41 89 44 24 10       	mov    %eax,0x10(%r12)
    2978:	4d 8b 2c 24          	mov    (%r12),%r13
    297c:	4d 8b 7c 24 08       	mov    0x8(%r12),%r15
    2981:	4c 89 ef             	mov    %r13,%rdi
    2984:	4c 89 fe             	mov    %r15,%rsi
    2987:	8b 55 d4             	mov    -0x2c(%rbp),%edx
    298a:	4c 89 f1             	mov    %r14,%rcx
    298d:	4c 8b 45 b8          	mov    -0x48(%rbp),%r8
    2991:	e8 ca 0f 00 00       	call   0x3960
    2996:	89 c1                	mov    %eax,%ecx
    2998:	b0 01                	mov    $0x1,%al
    299a:	84 c9                	test   %cl,%cl
    299c:	0f 85 16 01 00 00    	jne    0x2ab8
    29a2:	2b 5d a0             	sub    -0x60(%rbp),%ebx
    29a5:	ff c3                	inc    %ebx
    29a7:	66 0f 1f 84 00 00 00 	nopw   0x0(%rax,%rax,1)
    29ae:	00 00 
    29b0:	66 ff cb             	dec    %bx
    29b3:	74 12                	je     0x29c7
    29b5:	4c 89 ef             	mov    %r13,%rdi
    29b8:	be 30 00 00 00       	mov    $0x30,%esi
    29bd:	41 ff 57 20          	call   *0x20(%r15)
    29c1:	84 c0                	test   %al,%al
    29c3:	74 eb                	je     0x29b0
    29c5:	eb 6f                	jmp    0x2a36
    29c7:	4c 89 ef             	mov    %r13,%rdi
    29ca:	48 8b 75 c0          	mov    -0x40(%rbp),%rsi
    29ce:	48 8b 55 a8          	mov    -0x58(%rbp),%rdx
    29d2:	41 ff 57 18          	call   *0x18(%r15)
    29d6:	84 c0                	test   %al,%al
    29d8:	b0 01                	mov    $0x1,%al
    29da:	0f 85 d8 00 00 00    	jne    0x2ab8
    29e0:	48 8b 45 c8          	mov    -0x38(%rbp),%rax
    29e4:	49 89 44 24 10       	mov    %rax,0x10(%r12)
    29e9:	31 c0                	xor    %eax,%eax
    29eb:	e9 c8 00 00 00       	jmp    0x2ab8
    29f0:	31 c0                	xor    %eax,%eax
    29f2:	eb 05                	jmp    0x29f9
    29f4:	0f b7 c2             	movzwl %dx,%eax
    29f7:	d1 e8                	shr    $1,%eax
    29f9:	41 81 e7 ff ff 1f 00 	and    $0x1fffff,%r15d
    2a00:	45 89 fd             	mov    %r15d,%r13d
    2a03:	49 8b 0c 24          	mov    (%r12),%rcx
    2a07:	48 89 4d c8          	mov    %rcx,-0x38(%rbp)
    2a0b:	4d 8b 64 24 08       	mov    0x8(%r12),%r12
    2a10:	48 89 45 98          	mov    %rax,-0x68(%rbp)
    2a14:	44 8d 78 01          	lea    0x1(%rax),%r15d
    2a18:	0f 1f 84 00 00 00 00 	nopl   0x0(%rax,%rax,1)
    2a1f:	00 
    2a20:	66 41 ff cf          	dec    %r15w
    2a24:	74 14                	je     0x2a3a
    2a26:	48 8b 7d c8          	mov    -0x38(%rbp),%rdi
    2a2a:	44 89 ee             	mov    %r13d,%esi
    2a2d:	41 ff 54 24 20       	call   *0x20(%r12)
    2a32:	84 c0                	test   %al,%al
    2a34:	74 ea                	je     0x2a20
    2a36:	b0 01                	mov    $0x1,%al
    2a38:	eb 7e                	jmp    0x2ab8
    2a3a:	4c 8b 7d c8          	mov    -0x38(%rbp),%r15
    2a3e:	4c 89 ff             	mov    %r15,%rdi
    2a41:	4c 89 e6             	mov    %r12,%rsi
    2a44:	8b 55 d4             	mov    -0x2c(%rbp),%edx
    2a47:	4c 89 f1             	mov    %r14,%rcx
    2a4a:	4c 8b 45 b8          	mov    -0x48(%rbp),%r8
    2a4e:	e8 0d 0f 00 00       	call   0x3960
    2a53:	89 c1                	mov    %eax,%ecx
    2a55:	b0 01                	mov    $0x1,%al
    2a57:	84 c9                	test   %cl,%cl
    2a59:	75 5d                	jne    0x2ab8
    2a5b:	4c 89 ff             	mov    %r15,%rdi
    2a5e:	48 8b 75 c0          	mov    -0x40(%rbp),%rsi
    2a62:	48 8b 55 a8          	mov    -0x58(%rbp),%rdx
    2a66:	41 ff 54 24 18       	call   *0x18(%r12)
    2a6b:	89 c1                	mov    %eax,%ecx
    2a6d:	b0 01                	mov    $0x1,%al
    2a6f:	84 c9                	test   %cl,%cl
    2a71:	75 45                	jne    0x2ab8
    2a73:	44 8b 75 b4          	mov    -0x4c(%rbp),%r14d
    2a77:	4c 8b 7d 98          	mov    -0x68(%rbp),%r15
    2a7b:	45 29 fe             	sub    %r15d,%r14d
    2a7e:	44 03 7d a0          	add    -0x60(%rbp),%r15d
    2a82:	41 29 df             	sub    %ebx,%r15d
    2a85:	66 bb ff ff          	mov    $0xffff,%bx
    2a89:	0f 1f 80 00 00 00 00 	nopl   0x0(%rax)
    2a90:	41 8d 04 1f          	lea    (%r15,%rbx,1),%eax
    2a94:	66 83 f8 ff          	cmp    $0xffff,%ax
    2a98:	74 14                	je     0x2aae
    2a9a:	48 8b 7d c8          	mov    -0x38(%rbp),%rdi
    2a9e:	44 89 ee             	mov    %r13d,%esi
    2aa1:	41 ff 54 24 20       	call   *0x20(%r12)
    2aa6:	ff c3                	inc    %ebx
    2aa8:	84 c0                	test   %al,%al
    2aaa:	74 e4                	je     0x2a90
    2aac:	eb 03                	jmp    0x2ab1
    2aae:	44 89 f3             	mov    %r14d,%ebx
    2ab1:	66 44 39 f3          	cmp    %r14w,%bx
    2ab5:	0f 92 c0             	setb   %al
    2ab8:	48 83 c4 48          	add    $0x48,%rsp
    2abc:	5b                   	pop    %rbx
    2abd:	41 5c                	pop    %r12
    2abf:	41 5d                	pop    %r13
    2ac1:	41 5e                	pop    %r14
    2ac3:	41 5f                	pop    %r15
    2ac5:	5d                   	pop    %rbp
    2ac6:	c3                   	ret
    2ac7:	cc                   	int3
    2ac8:	cc                   	int3
    2ac9:	cc                   	int3
    2aca:	cc                   	int3
    2acb:	cc                   	int3
    2acc:	cc                   	int3
    2acd:	cc                   	int3
    2ace:	cc                   	int3
    2acf:	cc                   	int3
    2ad0:	55                   	push   %rbp
    2ad1:	48 89 e5             	mov    %rsp,%rbp
    2ad4:	ff 15 a6 2d 00 00    	call   *0x2da6(%rip)        # 0x5880
    2ada:	cc                   	int3
    2adb:	cc                   	int3
    2adc:	cc                   	int3
    2add:	cc                   	int3
    2ade:	cc                   	int3
    2adf:	cc                   	int3
    2ae0:	55                   	push   %rbp
    2ae1:	48 89 e5             	mov    %rsp,%rbp
    2ae4:	48 83 ec 60          	sub    $0x60,%rsp
    2ae8:	48 89 55 b8          	mov    %rdx,-0x48(%rbp)
    2aec:	48 89 4d c0          	mov    %rcx,-0x40(%rbp)
    2af0:	48 89 75 b0          	mov    %rsi,-0x50(%rbp)
    2af4:	48 39 f2             	cmp    %rsi,%rdx
    2af7:	0f 87 ef 02 00 00    	ja     0x2dec
    2afd:	48 39 f1             	cmp    %rsi,%rcx
    2b00:	77 35                	ja     0x2b37
    2b02:	48 39 ca             	cmp    %rcx,%rdx
    2b05:	0f 87 14 03 00 00    	ja     0x2e1f
    2b0b:	48 85 d2             	test   %rdx,%rdx
    2b0e:	0f 95 c0             	setne  %al
    2b11:	48 39 f2             	cmp    %rsi,%rdx
    2b14:	41 0f 92 c1          	setb   %r9b
    2b18:	44 84 c8             	test   %r9b,%al
    2b1b:	74 0a                	je     0x2b27
    2b1d:	80 3c 17 bf          	cmpb   $0xbf,(%rdi,%rdx,1)
    2b21:	0f 8e 8d 00 00 00    	jle    0x2bb4
    2b27:	48 85 c9             	test   %rcx,%rcx
    2b2a:	0f 95 c0             	setne  %al
    2b2d:	48 39 f1             	cmp    %rsi,%rcx
    2b30:	0f 92 c2             	setb   %dl
    2b33:	84 d0                	test   %dl,%al
    2b35:	75 33                	jne    0x2b6a
    2b37:	48 8d 45 c0          	lea    -0x40(%rbp),%rax
    2b3b:	48 89 45 c8          	mov    %rax,-0x38(%rbp)
    2b3f:	48 8b 05 12 2d 00 00 	mov    0x2d12(%rip),%rax        # 0x5858
    2b46:	48 89 45 d0          	mov    %rax,-0x30(%rbp)
    2b4a:	48 8d 4d b0          	lea    -0x50(%rbp),%rcx
    2b4e:	48 89 4d d8          	mov    %rcx,-0x28(%rbp)
    2b52:	48 89 45 e0          	mov    %rax,-0x20(%rbp)
    2b56:	48 8d 3d 16 1a 00 00 	lea    0x1a16(%rip),%rdi        # 0x4573
    2b5d:	48 8d 75 c8          	lea    -0x38(%rbp),%rsi
    2b61:	4c 89 c2             	mov    %r8,%rdx
    2b64:	ff 15 e6 2c 00 00    	call   *0x2ce6(%rip)        # 0x5850
    2b6a:	80 3c 0f bf          	cmpb   $0xbf,(%rdi,%rcx,1)
    2b6e:	7f c7                	jg     0x2b37
    2b70:	48 89 ca             	mov    %rcx,%rdx
    2b73:	66 66 66 66 2e 0f 1f 	data16 data16 data16 cs nopw 0x0(%rax,%rax,1)
    2b7a:	84 00 00 00 00 00 
    2b80:	80 3c 17 bf          	cmpb   $0xbf,(%rdi,%rdx,1)
    2b84:	7f 0a                	jg     0x2b90
    2b86:	48 ff ca             	dec    %rdx
    2b89:	75 f5                	jne    0x2b80
    2b8b:	31 d2                	xor    %edx,%edx
    2b8d:	0f 1f 00             	nopl   (%rax)
    2b90:	80 3c 0f bf          	cmpb   $0xbf,(%rdi,%rcx,1)
    2b94:	7f 0b                	jg     0x2ba1
    2b96:	48 ff c1             	inc    %rcx
    2b99:	48 39 ce             	cmp    %rcx,%rsi
    2b9c:	75 f2                	jne    0x2b90
    2b9e:	48 89 f1             	mov    %rsi,%rcx
    2ba1:	48 89 55 a0          	mov    %rdx,-0x60(%rbp)
    2ba5:	48 89 4d a8          	mov    %rcx,-0x58(%rbp)
    2ba9:	48 39 ca             	cmp    %rcx,%rdx
    2bac:	76 4c                	jbe    0x2bfa
    2bae:	ff 15 8c 2c 00 00    	call   *0x2c8c(%rip)        # 0x5840
    2bb4:	48 89 d0             	mov    %rdx,%rax
    2bb7:	66 0f 1f 84 00 00 00 	nopw   0x0(%rax,%rax,1)
    2bbe:	00 00 
    2bc0:	80 3c 07 bf          	cmpb   $0xbf,(%rdi,%rax,1)
    2bc4:	7f 0a                	jg     0x2bd0
    2bc6:	48 ff c8             	dec    %rax
    2bc9:	75 f5                	jne    0x2bc0
    2bcb:	31 c0                	xor    %eax,%eax
    2bcd:	0f 1f 00             	nopl   (%rax)
    2bd0:	80 3c 17 bf          	cmpb   $0xbf,(%rdi,%rdx,1)
    2bd4:	7f 0b                	jg     0x2be1
    2bd6:	48 ff c2             	inc    %rdx
    2bd9:	48 39 d6             	cmp    %rdx,%rsi
    2bdc:	75 f2                	jne    0x2bd0
    2bde:	48 89 f2             	mov    %rsi,%rdx
    2be1:	48 89 45 a0          	mov    %rax,-0x60(%rbp)
    2be5:	48 89 55 a8          	mov    %rdx,-0x58(%rbp)
    2be9:	48 39 d0             	cmp    %rdx,%rax
    2bec:	76 1e                	jbe    0x2c0c
    2bee:	48 89 d1             	mov    %rdx,%rcx
    2bf1:	48 89 c2             	mov    %rax,%rdx
    2bf4:	ff 15 46 2c 00 00    	call   *0x2c46(%rip)        # 0x5840
    2bfa:	48 85 d2             	test   %rdx,%rdx
    2bfd:	75 2a                	jne    0x2c29
    2bff:	48 39 f1             	cmp    %rsi,%rcx
    2c02:	73 3a                	jae    0x2c3e
    2c04:	80 3c 0f bf          	cmpb   $0xbf,(%rdi,%rcx,1)
    2c08:	7e a4                	jle    0x2bae
    2c0a:	eb 38                	jmp    0x2c44
    2c0c:	48 85 c0             	test   %rax,%rax
    2c0f:	0f 85 88 00 00 00    	jne    0x2c9d
    2c15:	48 39 f2             	cmp    %rsi,%rdx
    2c18:	0f 83 93 00 00 00    	jae    0x2cb1
    2c1e:	80 3c 17 bf          	cmpb   $0xbf,(%rdi,%rdx,1)
    2c22:	7e ca                	jle    0x2bee
    2c24:	e9 8e 00 00 00       	jmp    0x2cb7
    2c29:	48 39 f2             	cmp    %rsi,%rdx
    2c2c:	0f 83 93 00 00 00    	jae    0x2cc5
    2c32:	80 3c 17 c0          	cmpb   $0xc0,(%rdi,%rdx,1)
    2c36:	0f 8c 72 ff ff ff    	jl     0x2bae
    2c3c:	eb c1                	jmp    0x2bff
    2c3e:	0f 85 6a ff ff ff    	jne    0x2bae
    2c44:	48 39 ca             	cmp    %rcx,%rdx
    2c47:	74 73                	je     0x2cbc
    2c49:	0f b6 04 17          	movzbl (%rdi,%rdx,1),%eax
    2c4d:	84 c0                	test   %al,%al
    2c4f:	0f 89 f0 00 00 00    	jns    0x2d45
    2c55:	89 c1                	mov    %eax,%ecx
    2c57:	83 e1 1f             	and    $0x1f,%ecx
    2c5a:	44 0f b6 4c 17 01    	movzbl 0x1(%rdi,%rdx,1),%r9d
    2c60:	41 83 e1 3f          	and    $0x3f,%r9d
    2c64:	3c df                	cmp    $0xdf,%al
    2c66:	0f 86 be 00 00 00    	jbe    0x2d2a
    2c6c:	0f b6 74 17 02       	movzbl 0x2(%rdi,%rdx,1),%esi
    2c71:	41 c1 e1 06          	shl    $0x6,%r9d
    2c75:	83 e6 3f             	and    $0x3f,%esi
    2c78:	44 09 ce             	or     %r9d,%esi
    2c7b:	3c f0                	cmp    $0xf0,%al
    2c7d:	0f 82 bb 00 00 00    	jb     0x2d3e
    2c83:	0f b6 44 17 03       	movzbl 0x3(%rdi,%rdx,1),%eax
    2c88:	83 e1 07             	and    $0x7,%ecx
    2c8b:	c1 e1 12             	shl    $0x12,%ecx
    2c8e:	c1 e6 06             	shl    $0x6,%esi
    2c91:	83 e0 3f             	and    $0x3f,%eax
    2c94:	09 f0                	or     %esi,%eax
    2c96:	09 c8                	or     %ecx,%eax
    2c98:	e9 a8 00 00 00       	jmp    0x2d45
    2c9d:	48 39 f0             	cmp    %rsi,%rax
    2ca0:	73 2e                	jae    0x2cd0
    2ca2:	80 3c 07 c0          	cmpb   $0xc0,(%rdi,%rax,1)
    2ca6:	0f 8c 42 ff ff ff    	jl     0x2bee
    2cac:	e9 64 ff ff ff       	jmp    0x2c15
    2cb1:	0f 85 37 ff ff ff    	jne    0x2bee
    2cb7:	48 39 d0             	cmp    %rdx,%rax
    2cba:	75 1f                	jne    0x2cdb
    2cbc:	4c 89 c7             	mov    %r8,%rdi
    2cbf:	ff 15 c3 2b 00 00    	call   *0x2bc3(%rip)        # 0x5888
    2cc5:	0f 85 e3 fe ff ff    	jne    0x2bae
    2ccb:	e9 2f ff ff ff       	jmp    0x2bff
    2cd0:	0f 85 18 ff ff ff    	jne    0x2bee
    2cd6:	e9 3a ff ff ff       	jmp    0x2c15
    2cdb:	0f b6 0c 07          	movzbl (%rdi,%rax,1),%ecx
    2cdf:	84 c9                	test   %cl,%cl
    2ce1:	0f 89 b5 00 00 00    	jns    0x2d9c
    2ce7:	89 ca                	mov    %ecx,%edx
    2ce9:	83 e2 1f             	and    $0x1f,%edx
    2cec:	44 0f b6 4c 07 01    	movzbl 0x1(%rdi,%rax,1),%r9d
    2cf2:	41 83 e1 3f          	and    $0x3f,%r9d
    2cf6:	80 f9 df             	cmp    $0xdf,%cl
    2cf9:	76 39                	jbe    0x2d34
    2cfb:	0f b6 74 07 02       	movzbl 0x2(%rdi,%rax,1),%esi
    2d00:	41 c1 e1 06          	shl    $0x6,%r9d
    2d04:	83 e6 3f             	and    $0x3f,%esi
    2d07:	44 09 ce             	or     %r9d,%esi
    2d0a:	80 f9 f0             	cmp    $0xf0,%cl
    2d0d:	0f 82 82 00 00 00    	jb     0x2d95
    2d13:	0f b6 4c 07 03       	movzbl 0x3(%rdi,%rax,1),%ecx
    2d18:	83 e2 07             	and    $0x7,%edx
    2d1b:	c1 e2 12             	shl    $0x12,%edx
    2d1e:	c1 e6 06             	shl    $0x6,%esi
    2d21:	83 e1 3f             	and    $0x3f,%ecx
    2d24:	09 f1                	or     %esi,%ecx
    2d26:	09 d1                	or     %edx,%ecx
    2d28:	eb 72                	jmp    0x2d9c
    2d2a:	c1 e1 06             	shl    $0x6,%ecx
    2d2d:	44 09 c9             	or     %r9d,%ecx
    2d30:	89 c8                	mov    %ecx,%eax
    2d32:	eb 11                	jmp    0x2d45
    2d34:	c1 e2 06             	shl    $0x6,%edx
    2d37:	44 09 ca             	or     %r9d,%edx
    2d3a:	89 d1                	mov    %edx,%ecx
    2d3c:	eb 5e                	jmp    0x2d9c
    2d3e:	c1 e1 0c             	shl    $0xc,%ecx
    2d41:	09 ce                	or     %ecx,%esi
    2d43:	89 f0                	mov    %esi,%eax
    2d45:	89 45 fc             	mov    %eax,-0x4(%rbp)
    2d48:	48 8d 45 c0          	lea    -0x40(%rbp),%rax
    2d4c:	48 89 45 c8          	mov    %rax,-0x38(%rbp)
    2d50:	48 8b 05 01 2b 00 00 	mov    0x2b01(%rip),%rax        # 0x5858
    2d57:	48 89 45 d0          	mov    %rax,-0x30(%rbp)
    2d5b:	48 8d 45 fc          	lea    -0x4(%rbp),%rax
    2d5f:	48 89 45 d8          	mov    %rax,-0x28(%rbp)
    2d63:	48 8b 05 26 2b 00 00 	mov    0x2b26(%rip),%rax        # 0x5890
    2d6a:	48 89 45 e0          	mov    %rax,-0x20(%rbp)
    2d6e:	48 8d 45 a0          	lea    -0x60(%rbp),%rax
    2d72:	48 89 45 e8          	mov    %rax,-0x18(%rbp)
    2d76:	48 8d 05 e3 0d 00 00 	lea    0xde3(%rip),%rax        # 0x3b60
    2d7d:	48 89 45 f0          	mov    %rax,-0x10(%rbp)
    2d81:	48 8d 3d 01 16 00 00 	lea    0x1601(%rip),%rdi        # 0x4389
    2d88:	48 8d 75 c8          	lea    -0x38(%rbp),%rsi
    2d8c:	4c 89 c2             	mov    %r8,%rdx
    2d8f:	ff 15 bb 2a 00 00    	call   *0x2abb(%rip)        # 0x5850
    2d95:	c1 e2 0c             	shl    $0xc,%edx
    2d98:	09 d6                	or     %edx,%esi
    2d9a:	89 f1                	mov    %esi,%ecx
    2d9c:	89 4d fc             	mov    %ecx,-0x4(%rbp)
    2d9f:	48 8d 45 b8          	lea    -0x48(%rbp),%rax
    2da3:	48 89 45 c8          	mov    %rax,-0x38(%rbp)
    2da7:	48 8b 05 aa 2a 00 00 	mov    0x2aaa(%rip),%rax        # 0x5858
    2dae:	48 89 45 d0          	mov    %rax,-0x30(%rbp)
    2db2:	48 8d 45 fc          	lea    -0x4(%rbp),%rax
    2db6:	48 89 45 d8          	mov    %rax,-0x28(%rbp)
    2dba:	48 8b 05 cf 2a 00 00 	mov    0x2acf(%rip),%rax        # 0x5890
    2dc1:	48 89 45 e0          	mov    %rax,-0x20(%rbp)
    2dc5:	48 8d 45 a0          	lea    -0x60(%rbp),%rax
    2dc9:	48 89 45 e8          	mov    %rax,-0x18(%rbp)
    2dcd:	48 8d 05 8c 0d 00 00 	lea    0xd8c(%rip),%rax        # 0x3b60
    2dd4:	48 89 45 f0          	mov    %rax,-0x10(%rbp)
    2dd8:	48 8d 3d 58 15 00 00 	lea    0x1558(%rip),%rdi        # 0x4337
    2ddf:	48 8d 75 c8          	lea    -0x38(%rbp),%rsi
    2de3:	4c 89 c2             	mov    %r8,%rdx
    2de6:	ff 15 64 2a 00 00    	call   *0x2a64(%rip)        # 0x5850
    2dec:	48 8d 45 b8          	lea    -0x48(%rbp),%rax
    2df0:	48 89 45 c8          	mov    %rax,-0x38(%rbp)
    2df4:	48 8b 05 5d 2a 00 00 	mov    0x2a5d(%rip),%rax        # 0x5858
    2dfb:	48 89 45 d0          	mov    %rax,-0x30(%rbp)
    2dff:	48 8d 4d b0          	lea    -0x50(%rbp),%rcx
    2e03:	48 89 4d d8          	mov    %rcx,-0x28(%rbp)
    2e07:	48 89 45 e0          	mov    %rax,-0x20(%rbp)
    2e0b:	48 8d 3d eb 16 00 00 	lea    0x16eb(%rip),%rdi        # 0x44fd
    2e12:	48 8d 75 c8          	lea    -0x38(%rbp),%rsi
    2e16:	4c 89 c2             	mov    %r8,%rdx
    2e19:	ff 15 31 2a 00 00    	call   *0x2a31(%rip)        # 0x5850
    2e1f:	48 8d 45 b8          	lea    -0x48(%rbp),%rax
    2e23:	48 89 45 c8          	mov    %rax,-0x38(%rbp)
    2e27:	48 8b 05 2a 2a 00 00 	mov    0x2a2a(%rip),%rax        # 0x5858
    2e2e:	48 89 45 d0          	mov    %rax,-0x30(%rbp)
    2e32:	48 8d 4d c0          	lea    -0x40(%rbp),%rcx
    2e36:	48 89 4d d8          	mov    %rcx,-0x28(%rbp)
    2e3a:	48 89 45 e0          	mov    %rax,-0x20(%rbp)
    2e3e:	48 8d 3d a5 15 00 00 	lea    0x15a5(%rip),%rdi        # 0x43ea
    2e45:	48 8d 75 c8          	lea    -0x38(%rbp),%rsi
    2e49:	4c 89 c2             	mov    %r8,%rdx
    2e4c:	ff 15 fe 29 00 00    	call   *0x29fe(%rip)        # 0x5850
    2e52:	cc                   	int3
    2e53:	cc                   	int3
    2e54:	cc                   	int3
    2e55:	cc                   	int3
    2e56:	cc                   	int3
    2e57:	cc                   	int3
    2e58:	cc                   	int3
    2e59:	cc                   	int3
    2e5a:	cc                   	int3
    2e5b:	cc                   	int3
    2e5c:	cc                   	int3
    2e5d:	cc                   	int3
    2e5e:	cc                   	int3
    2e5f:	cc                   	int3
    2e60:	55                   	push   %rbp
    2e61:	48 89 e5             	mov    %rsp,%rbp
    2e64:	48 89 fa             	mov    %rdi,%rdx
    2e67:	48 8d 3d 86 20 00 00 	lea    0x2086(%rip),%rdi        # 0x4ef4
    2e6e:	be 2b 00 00 00       	mov    $0x2b,%esi
    2e73:	ff 15 cf 29 00 00    	call   *0x29cf(%rip)        # 0x5848
    2e79:	55                   	push   %rbp
    2e7a:	48 89 e5             	mov    %rsp,%rbp
    2e7d:	48 83 ec 30          	sub    $0x30,%rsp
    2e81:	48 8d 45 f8          	lea    -0x8(%rbp),%rax
    2e85:	48 89 38             	mov    %rdi,(%rax)
    2e88:	48 8d 4d f0          	lea    -0x10(%rbp),%rcx
    2e8c:	48 89 31             	mov    %rsi,(%rcx)
    2e8f:	48 8d 75 d0          	lea    -0x30(%rbp),%rsi
    2e93:	48 89 0e             	mov    %rcx,(%rsi)
    2e96:	48 8b 0d bb 29 00 00 	mov    0x29bb(%rip),%rcx        # 0x5858
    2e9d:	48 89 4e 08          	mov    %rcx,0x8(%rsi)
    2ea1:	48 89 46 10          	mov    %rax,0x10(%rsi)
    2ea5:	48 89 4e 18          	mov    %rcx,0x18(%rsi)
    2ea9:	48 8d 3d df 15 00 00 	lea    0x15df(%rip),%rdi        # 0x448f
    2eb0:	ff 15 9a 29 00 00    	call   *0x299a(%rip)        # 0x5850
    2eb6:	cc                   	int3
    2eb7:	cc                   	int3
    2eb8:	cc                   	int3
    2eb9:	cc                   	int3
    2eba:	cc                   	int3
    2ebb:	cc                   	int3
    2ebc:	cc                   	int3
    2ebd:	cc                   	int3
    2ebe:	cc                   	int3
    2ebf:	cc                   	int3
    2ec0:	55                   	push   %rbp
    2ec1:	48 89 e5             	mov    %rsp,%rbp
    2ec4:	48 8d 34 75 01 00 00 	lea    0x1(,%rsi,2),%rsi
    2ecb:	00 
    2ecc:	ff 15 7e 29 00 00    	call   *0x297e(%rip)        # 0x5850
    2ed2:	cc                   	int3
    2ed3:	cc                   	int3
    2ed4:	cc                   	int3
    2ed5:	cc                   	int3
    2ed6:	cc                   	int3
    2ed7:	cc                   	int3
    2ed8:	cc                   	int3
    2ed9:	cc                   	int3
    2eda:	cc                   	int3
    2edb:	cc                   	int3
    2edc:	cc                   	int3
    2edd:	cc                   	int3
    2ede:	cc                   	int3
    2edf:	cc                   	int3
    2ee0:	55                   	push   %rbp
    2ee1:	48 89 e5             	mov    %rsp,%rbp
    2ee4:	48 83 ec 30          	sub    $0x30,%rsp
    2ee8:	48 89 7d f0          	mov    %rdi,-0x10(%rbp)
    2eec:	48 89 75 f8          	mov    %rsi,-0x8(%rbp)
    2ef0:	48 8d 45 f0          	lea    -0x10(%rbp),%rax
    2ef4:	48 89 45 d8          	mov    %rax,-0x28(%rbp)
    2ef8:	48 89 55 e0          	mov    %rdx,-0x20(%rbp)
    2efc:	66 c7 45 e8 01 00    	movw   $0x1,-0x18(%rbp)
    2f02:	48 8d 7d d8          	lea    -0x28(%rbp),%rdi
    2f06:	ff 15 04 29 00 00    	call   *0x2904(%rip)        # 0x5810
    2f0c:	cc                   	int3
    2f0d:	cc                   	int3
    2f0e:	cc                   	int3
    2f0f:	cc                   	int3
    2f10:	4c 8d 47 07          	lea    0x7(%rdi),%r8
    2f14:	49 83 e0 f8          	and    $0xfffffffffffffff8,%r8
    2f18:	4c 89 c0             	mov    %r8,%rax
    2f1b:	48 29 f8             	sub    %rdi,%rax
    2f1e:	48 89 f2             	mov    %rsi,%rdx
    2f21:	48 29 c2             	sub    %rax,%rdx
    2f24:	73 19                	jae    0x2f3f
    2f26:	48 85 f6             	test   %rsi,%rsi
    2f29:	74 5a                	je     0x2f85
    2f2b:	89 f1                	mov    %esi,%ecx
    2f2d:	83 e1 03             	and    $0x3,%ecx
    2f30:	48 83 fe 04          	cmp    $0x4,%rsi
    2f34:	73 52                	jae    0x2f88
    2f36:	31 d2                	xor    %edx,%edx
    2f38:	31 c0                	xor    %eax,%eax
    2f3a:	e9 96 00 00 00       	jmp    0x2fd5
    2f3f:	48 89 d1             	mov    %rdx,%rcx
    2f42:	48 c1 e9 03          	shr    $0x3,%rcx
    2f46:	74 de                	je     0x2f26
    2f48:	41 57                	push   %r15
    2f4a:	41 56                	push   %r14
    2f4c:	41 55                	push   %r13
    2f4e:	41 54                	push   %r12
    2f50:	53                   	push   %rbx
    2f51:	89 d6                	mov    %edx,%esi
    2f53:	83 e6 07             	and    $0x7,%esi
    2f56:	49 39 f8             	cmp    %rdi,%r8
    2f59:	75 08                	jne    0x2f63
    2f5b:	45 31 c0             	xor    %r8d,%r8d
    2f5e:	e9 22 01 00 00       	jmp    0x3085
    2f63:	41 89 c1             	mov    %eax,%r9d
    2f66:	41 83 e1 03          	and    $0x3,%r9d
    2f6a:	49 89 fa             	mov    %rdi,%r10
    2f6d:	4d 29 c2             	sub    %r8,%r10
    2f70:	49 83 fa fc          	cmp    $0xfffffffffffffffc,%r10
    2f74:	0f 86 7c 00 00 00    	jbe    0x2ff6
    2f7a:	45 31 d2             	xor    %r10d,%r10d
    2f7d:	45 31 c0             	xor    %r8d,%r8d
    2f80:	e9 d6 00 00 00       	jmp    0x305b
    2f85:	31 c0                	xor    %eax,%eax
    2f87:	c3                   	ret
    2f88:	48 83 e6 fc          	and    $0xfffffffffffffffc,%rsi
    2f8c:	31 d2                	xor    %edx,%edx
    2f8e:	31 c0                	xor    %eax,%eax
    2f90:	45 31 c0             	xor    %r8d,%r8d
    2f93:	80 3c 17 c0          	cmpb   $0xc0,(%rdi,%rdx,1)
    2f97:	41 0f 9d c0          	setge  %r8b
    2f9b:	49 01 c0             	add    %rax,%r8
    2f9e:	31 c0                	xor    %eax,%eax
    2fa0:	80 7c 17 01 c0       	cmpb   $0xc0,0x1(%rdi,%rdx,1)
    2fa5:	0f 9d c0             	setge  %al
    2fa8:	45 31 c9             	xor    %r9d,%r9d
    2fab:	80 7c 17 02 c0       	cmpb   $0xc0,0x2(%rdi,%rdx,1)
    2fb0:	41 0f 9d c1          	setge  %r9b
    2fb4:	49 01 c1             	add    %rax,%r9
    2fb7:	4d 01 c1             	add    %r8,%r9
    2fba:	31 c0                	xor    %eax,%eax
    2fbc:	80 7c 17 03 c0       	cmpb   $0xc0,0x3(%rdi,%rdx,1)
    2fc1:	0f 9d c0             	setge  %al
    2fc4:	4c 01 c8             	add    %r9,%rax
    2fc7:	48 83 c2 04          	add    $0x4,%rdx
    2fcb:	48 39 d6             	cmp    %rdx,%rsi
    2fce:	75 c0                	jne    0x2f90
    2fd0:	48 85 c9             	test   %rcx,%rcx
    2fd3:	74 20                	je     0x2ff5
    2fd5:	48 01 d7             	add    %rdx,%rdi
    2fd8:	31 d2                	xor    %edx,%edx
    2fda:	66 0f 1f 44 00 00    	nopw   0x0(%rax,%rax,1)
    2fe0:	31 f6                	xor    %esi,%esi
    2fe2:	80 3c 17 c0          	cmpb   $0xc0,(%rdi,%rdx,1)
    2fe6:	40 0f 9d c6          	setge  %sil
    2fea:	48 01 f0             	add    %rsi,%rax
    2fed:	48 ff c2             	inc    %rdx
    2ff0:	48 39 d1             	cmp    %rdx,%rcx
    2ff3:	75 eb                	jne    0x2fe0
    2ff5:	c3                   	ret
    2ff6:	41 89 c3             	mov    %eax,%r11d
    2ff9:	41 83 e3 04          	and    $0x4,%r11d
    2ffd:	45 31 d2             	xor    %r10d,%r10d
    3000:	45 31 c0             	xor    %r8d,%r8d
    3003:	66 66 66 66 2e 0f 1f 	data16 data16 data16 cs nopw 0x0(%rax,%rax,1)
    300a:	84 00 00 00 00 00 
    3010:	31 db                	xor    %ebx,%ebx
    3012:	42 80 3c 17 c0       	cmpb   $0xc0,(%rdi,%r10,1)
    3017:	0f 9d c3             	setge  %bl
    301a:	4c 01 c3             	add    %r8,%rbx
    301d:	45 31 c0             	xor    %r8d,%r8d
    3020:	42 80 7c 17 01 c0    	cmpb   $0xc0,0x1(%rdi,%r10,1)
    3026:	41 0f 9d c0          	setge  %r8b
    302a:	45 31 f6             	xor    %r14d,%r14d
    302d:	42 80 7c 17 02 c0    	cmpb   $0xc0,0x2(%rdi,%r10,1)
    3033:	41 0f 9d c6          	setge  %r14b
    3037:	4d 01 c6             	add    %r8,%r14
    303a:	49 01 de             	add    %rbx,%r14
    303d:	45 31 c0             	xor    %r8d,%r8d
    3040:	42 80 7c 17 03 c0    	cmpb   $0xc0,0x3(%rdi,%r10,1)
    3046:	41 0f 9d c0          	setge  %r8b
    304a:	4d 01 f0             	add    %r14,%r8
    304d:	49 83 c2 04          	add    $0x4,%r10
    3051:	4d 39 d3             	cmp    %r10,%r11
    3054:	75 ba                	jne    0x3010
    3056:	4d 85 c9             	test   %r9,%r9
    3059:	74 2a                	je     0x3085
    305b:	49 01 fa             	add    %rdi,%r10
    305e:	45 31 db             	xor    %r11d,%r11d
    3061:	66 66 66 66 66 66 2e 	data16 data16 data16 data16 data16 cs nopw 0x0(%rax,%rax,1)
    3068:	0f 1f 84 00 00 00 00 
    306f:	00 
    3070:	31 db                	xor    %ebx,%ebx
    3072:	43 80 3c 1a c0       	cmpb   $0xc0,(%r10,%r11,1)
    3077:	0f 9d c3             	setge  %bl
    307a:	49 01 d8             	add    %rbx,%r8
    307d:	49 ff c3             	inc    %r11
    3080:	4d 39 d9             	cmp    %r11,%r9
    3083:	75 eb                	jne    0x3070
    3085:	48 01 c7             	add    %rax,%rdi
    3088:	48 85 f6             	test   %rsi,%rsi
    308b:	0f 84 8f 00 00 00    	je     0x3120
    3091:	48 b8 f8 ff ff ff ff 	movabs $0x7ffffffffffffff8,%rax
    3098:	ff ff 7f 
    309b:	48 21 c2             	and    %rax,%rdx
    309e:	31 c0                	xor    %eax,%eax
    30a0:	80 3c 17 c0          	cmpb   $0xc0,(%rdi,%rdx,1)
    30a4:	0f 9d c0             	setge  %al
    30a7:	83 fe 01             	cmp    $0x1,%esi
    30aa:	74 76                	je     0x3122
    30ac:	45 31 c9             	xor    %r9d,%r9d
    30af:	80 7c 17 01 c0       	cmpb   $0xc0,0x1(%rdi,%rdx,1)
    30b4:	41 0f 9d c1          	setge  %r9b
    30b8:	4c 01 c8             	add    %r9,%rax
    30bb:	83 fe 02             	cmp    $0x2,%esi
    30be:	74 62                	je     0x3122
    30c0:	45 31 c9             	xor    %r9d,%r9d
    30c3:	80 7c 17 02 c0       	cmpb   $0xc0,0x2(%rdi,%rdx,1)
    30c8:	41 0f 9d c1          	setge  %r9b
    30cc:	4c 01 c8             	add    %r9,%rax
    30cf:	83 fe 03             	cmp    $0x3,%esi
    30d2:	74 4e                	je     0x3122
    30d4:	45 31 c9             	xor    %r9d,%r9d
    30d7:	80 7c 17 03 c0       	cmpb   $0xc0,0x3(%rdi,%rdx,1)
    30dc:	41 0f 9d c1          	setge  %r9b
    30e0:	4c 01 c8             	add    %r9,%rax
    30e3:	83 fe 04             	cmp    $0x4,%esi
    30e6:	74 3a                	je     0x3122
    30e8:	45 31 c9             	xor    %r9d,%r9d
    30eb:	80 7c 17 04 c0       	cmpb   $0xc0,0x4(%rdi,%rdx,1)
    30f0:	41 0f 9d c1          	setge  %r9b
    30f4:	4c 01 c8             	add    %r9,%rax
    30f7:	83 fe 05             	cmp    $0x5,%esi
    30fa:	74 26                	je     0x3122
    30fc:	45 31 c9             	xor    %r9d,%r9d
    30ff:	80 7c 17 05 c0       	cmpb   $0xc0,0x5(%rdi,%rdx,1)
    3104:	41 0f 9d c1          	setge  %r9b
    3108:	4c 01 c8             	add    %r9,%rax
    310b:	83 fe 06             	cmp    $0x6,%esi
    310e:	74 12                	je     0x3122
    3110:	31 f6                	xor    %esi,%esi
    3112:	80 7c 17 06 c0       	cmpb   $0xc0,0x6(%rdi,%rdx,1)
    3117:	40 0f 9d c6          	setge  %sil
    311b:	48 01 f0             	add    %rsi,%rax
    311e:	eb 02                	jmp    0x3122
    3120:	31 c0                	xor    %eax,%eax
    3122:	4c 01 c0             	add    %r8,%rax
    3125:	49 b8 01 01 01 01 01 	movabs $0x101010101010101,%r8
    312c:	01 01 01 
    312f:	48 be ff 00 ff 00 ff 	movabs $0xff00ff00ff00ff,%rsi
    3136:	00 ff 00 
    3139:	48 ba 01 00 01 00 01 	movabs $0x1000100010001,%rdx
    3140:	00 01 00 
    3143:	eb 3f                	jmp    0x3184
    3145:	66 66 2e 0f 1f 84 00 	data16 cs nopw 0x0(%rax,%rax,1)
    314c:	00 00 00 00 
    3150:	45 31 f6             	xor    %r14d,%r14d
    3153:	4c 01 cf             	add    %r9,%rdi
    3156:	4c 29 d1             	sub    %r10,%rcx
    3159:	45 89 d3             	mov    %r10d,%r11d
    315c:	41 83 e3 03          	and    $0x3,%r11d
    3160:	4c 89 f3             	mov    %r14,%rbx
    3163:	48 21 f3             	and    %rsi,%rbx
    3166:	49 c1 ee 08          	shr    $0x8,%r14
    316a:	49 21 f6             	and    %rsi,%r14
    316d:	49 01 de             	add    %rbx,%r14
    3170:	4c 0f af f2          	imul   %rdx,%r14
    3174:	49 c1 ee 30          	shr    $0x30,%r14
    3178:	4c 01 f0             	add    %r14,%rax
    317b:	4d 85 db             	test   %r11,%r11
    317e:	0f 85 b5 00 00 00    	jne    0x3239
    3184:	48 85 c9             	test   %rcx,%rcx
    3187:	0f 84 2d 01 00 00    	je     0x32ba
    318d:	49 89 f9             	mov    %rdi,%r9
    3190:	48 81 f9 c0 00 00 00 	cmp    $0xc0,%rcx
    3197:	41 ba c0 00 00 00    	mov    $0xc0,%r10d
    319d:	4c 0f 42 d1          	cmovb  %rcx,%r10
    31a1:	42 8d 3c d5 00 00 00 	lea    0x0(,%r10,8),%edi
    31a8:	00 
    31a9:	41 89 fb             	mov    %edi,%r11d
    31ac:	41 81 e3 e0 07 00 00 	and    $0x7e0,%r11d
    31b3:	74 9b                	je     0x3150
    31b5:	4d 01 cb             	add    %r9,%r11
    31b8:	45 31 f6             	xor    %r14d,%r14d
    31bb:	4c 89 cb             	mov    %r9,%rbx
    31be:	66 90                	xchg   %ax,%ax
    31c0:	4c 8b 3b             	mov    (%rbx),%r15
    31c3:	4c 8b 63 08          	mov    0x8(%rbx),%r12
    31c7:	4d 89 fd             	mov    %r15,%r13
    31ca:	49 f7 d5             	not    %r13
    31cd:	49 c1 ed 07          	shr    $0x7,%r13
    31d1:	49 c1 ef 06          	shr    $0x6,%r15
    31d5:	4d 09 ef             	or     %r13,%r15
    31d8:	4d 21 c7             	and    %r8,%r15
    31db:	4d 01 f7             	add    %r14,%r15
    31de:	4d 89 e6             	mov    %r12,%r14
    31e1:	49 f7 d6             	not    %r14
    31e4:	49 c1 ee 07          	shr    $0x7,%r14
    31e8:	49 c1 ec 06          	shr    $0x6,%r12
    31ec:	4d 09 f4             	or     %r14,%r12
    31ef:	4d 21 c4             	and    %r8,%r12
    31f2:	4c 8b 6b 10          	mov    0x10(%rbx),%r13
    31f6:	4d 89 ee             	mov    %r13,%r14
    31f9:	49 f7 d6             	not    %r14
    31fc:	49 c1 ee 07          	shr    $0x7,%r14
    3200:	49 c1 ed 06          	shr    $0x6,%r13
    3204:	4d 09 f5             	or     %r14,%r13
    3207:	4d 21 c5             	and    %r8,%r13
    320a:	4d 01 e5             	add    %r12,%r13
    320d:	4d 01 fd             	add    %r15,%r13
    3210:	4c 8b 73 18          	mov    0x18(%rbx),%r14
    3214:	4d 89 f7             	mov    %r14,%r15
    3217:	49 f7 d7             	not    %r15
    321a:	49 c1 ef 07          	shr    $0x7,%r15
    321e:	49 c1 ee 06          	shr    $0x6,%r14
    3222:	4d 09 fe             	or     %r15,%r14
    3225:	4d 21 c6             	and    %r8,%r14
    3228:	4d 01 ee             	add    %r13,%r14
    322b:	48 83 c3 20          	add    $0x20,%rbx
    322f:	4c 39 db             	cmp    %r11,%rbx
    3232:	75 8c                	jne    0x31c0
    3234:	e9 1a ff ff ff       	jmp    0x3153
    3239:	41 81 e2 fc 00 00 00 	and    $0xfc,%r10d
    3240:	44 89 d1             	mov    %r10d,%ecx
    3243:	49 8b 0c c9          	mov    (%r9,%rcx,8),%rcx
    3247:	48 89 cf             	mov    %rcx,%rdi
    324a:	48 f7 d7             	not    %rdi
    324d:	48 c1 ef 07          	shr    $0x7,%rdi
    3251:	48 c1 e9 06          	shr    $0x6,%rcx
    3255:	48 09 f9             	or     %rdi,%rcx
    3258:	4c 21 c1             	and    %r8,%rcx
    325b:	41 83 fb 01          	cmp    $0x1,%r11d
    325f:	74 3e                	je     0x329f
    3261:	4b 8b 7c d1 08       	mov    0x8(%r9,%r10,8),%rdi
    3266:	48 89 fb             	mov    %rdi,%rbx
    3269:	48 f7 d3             	not    %rbx
    326c:	48 c1 eb 07          	shr    $0x7,%rbx
    3270:	48 c1 ef 06          	shr    $0x6,%rdi
    3274:	48 09 df             	or     %rbx,%rdi
    3277:	4c 21 c7             	and    %r8,%rdi
    327a:	48 01 f9             	add    %rdi,%rcx
    327d:	41 83 fb 02          	cmp    $0x2,%r11d
    3281:	74 1c                	je     0x329f
    3283:	4b 8b 7c d1 10       	mov    0x10(%r9,%r10,8),%rdi
    3288:	49 89 f9             	mov    %rdi,%r9
    328b:	49 f7 d1             	not    %r9
    328e:	49 c1 e9 07          	shr    $0x7,%r9
    3292:	48 c1 ef 06          	shr    $0x6,%rdi
    3296:	4c 09 cf             	or     %r9,%rdi
    3299:	4c 21 c7             	and    %r8,%rdi
    329c:	48 01 f9             	add    %rdi,%rcx
    329f:	48 89 cf             	mov    %rcx,%rdi
    32a2:	48 21 f7             	and    %rsi,%rdi
    32a5:	48 c1 e9 08          	shr    $0x8,%rcx
    32a9:	48 21 f1             	and    %rsi,%rcx
    32ac:	48 01 f9             	add    %rdi,%rcx
    32af:	48 0f af ca          	imul   %rdx,%rcx
    32b3:	48 c1 e9 30          	shr    $0x30,%rcx
    32b7:	48 01 c8             	add    %rcx,%rax
    32ba:	5b                   	pop    %rbx
    32bb:	41 5c                	pop    %r12
    32bd:	41 5d                	pop    %r13
    32bf:	41 5e                	pop    %r14
    32c1:	41 5f                	pop    %r15
    32c3:	c3                   	ret
    32c4:	cc                   	int3
    32c5:	cc                   	int3
    32c6:	cc                   	int3
    32c7:	cc                   	int3
    32c8:	cc                   	int3
    32c9:	cc                   	int3
    32ca:	cc                   	int3
    32cb:	cc                   	int3
    32cc:	cc                   	int3
    32cd:	cc                   	int3
    32ce:	cc                   	int3
    32cf:	cc                   	int3
    32d0:	41 57                	push   %r15
    32d2:	41 56                	push   %r14
    32d4:	53                   	push   %rbx
    32d5:	48 89 f8             	mov    %rdi,%rax
    32d8:	31 ff                	xor    %edi,%edi
    32da:	48 89 d1             	mov    %rdx,%rcx
    32dd:	48 83 e9 0f          	sub    $0xf,%rcx
    32e1:	48 0f 43 f9          	cmovae %rcx,%rdi
    32e5:	48 85 d2             	test   %rdx,%rdx
    32e8:	0f 84 a9 01 00 00    	je     0x3497
    32ee:	4c 8d 46 07          	lea    0x7(%rsi),%r8
    32f2:	49 83 e0 f8          	and    $0xfffffffffffffff8,%r8
    32f6:	49 29 f0             	sub    %rsi,%r8
    32f9:	31 c9                	xor    %ecx,%ecx
    32fb:	4c 8d 15 e5 1c 00 00 	lea    0x1ce5(%rip),%r10        # 0x4fe7
    3302:	49 bb 80 80 80 80 80 	movabs $0x8080808080808080,%r11
    3309:	80 80 80 
    330c:	eb 11                	jmp    0x331f
    330e:	66 90                	xchg   %ax,%ax
    3310:	49 ff c6             	inc    %r14
    3313:	4c 89 f1             	mov    %r14,%rcx
    3316:	48 39 d1             	cmp    %rdx,%rcx
    3319:	0f 83 78 01 00 00    	jae    0x3497
    331f:	0f b6 1c 0e          	movzbl (%rsi,%rcx,1),%ebx
    3323:	84 db                	test   %bl,%bl
    3325:	78 59                	js     0x3380
    3327:	45 89 c1             	mov    %r8d,%r9d
    332a:	41 29 c9             	sub    %ecx,%r9d
    332d:	41 f6 c1 07          	test   $0x7,%r9b
    3331:	74 11                	je     0x3344
    3333:	48 ff c1             	inc    %rcx
    3336:	eb de                	jmp    0x3316
    3338:	0f 1f 84 00 00 00 00 	nopl   0x0(%rax,%rax,1)
    333f:	00 
    3340:	48 83 c1 10          	add    $0x10,%rcx
    3344:	48 39 f9             	cmp    %rdi,%rcx
    3347:	73 0e                	jae    0x3357
    3349:	4c 8b 4c 0e 08       	mov    0x8(%rsi,%rcx,1),%r9
    334e:	4c 0b 0c 0e          	or     (%rsi,%rcx,1),%r9
    3352:	4d 85 d9             	test   %r11,%r9
    3355:	74 e9                	je     0x3340
    3357:	48 39 d1             	cmp    %rdx,%rcx
    335a:	73 ba                	jae    0x3316
    335c:	0f 1f 40 00          	nopl   0x0(%rax)
    3360:	80 3c 0e 00          	cmpb   $0x0,(%rsi,%rcx,1)
    3364:	78 b0                	js     0x3316
    3366:	48 ff c1             	inc    %rcx
    3369:	48 39 ca             	cmp    %rcx,%rdx
    336c:	75 f2                	jne    0x3360
    336e:	e9 24 01 00 00       	jmp    0x3497
    3373:	66 66 66 66 2e 0f 1f 	data16 data16 data16 cs nopw 0x0(%rax,%rax,1)
    337a:	84 00 00 00 00 00 
    3380:	46 0f b6 34 13       	movzbl (%rbx,%r10,1),%r14d
    3385:	41 b1 01             	mov    $0x1,%r9b
    3388:	41 83 fe 04          	cmp    $0x4,%r14d
    338c:	74 5d                	je     0x33eb
    338e:	41 83 fe 03          	cmp    $0x3,%r14d
    3392:	74 29                	je     0x33bd
    3394:	41 83 fe 02          	cmp    $0x2,%r14d
    3398:	0f 85 0a 01 00 00    	jne    0x34a8
    339e:	4c 8d 71 01          	lea    0x1(%rcx),%r14
    33a2:	49 39 d6             	cmp    %rdx,%r14
    33a5:	0f 83 f8 00 00 00    	jae    0x34a3
    33ab:	42 80 3c 36 bf       	cmpb   $0xbf,(%rsi,%r14,1)
    33b0:	b3 01                	mov    $0x1,%bl
    33b2:	0f 8e 58 ff ff ff    	jle    0x3310
    33b8:	e9 f1 00 00 00       	jmp    0x34ae
    33bd:	4c 8d 71 01          	lea    0x1(%rcx),%r14
    33c1:	49 39 d6             	cmp    %rdx,%r14
    33c4:	0f 83 d9 00 00 00    	jae    0x34a3
    33ca:	46 0f b6 34 36       	movzbl (%rsi,%r14,1),%r14d
    33cf:	48 81 fb e0 00 00 00 	cmp    $0xe0,%rbx
    33d6:	74 41                	je     0x3419
    33d8:	81 fb ed 00 00 00    	cmp    $0xed,%ebx
    33de:	75 54                	jne    0x3434
    33e0:	41 80 fe 9f          	cmp    $0x9f,%r14b
    33e4:	7e 66                	jle    0x344c
    33e6:	e9 bd 00 00 00       	jmp    0x34a8
    33eb:	4c 8d 71 01          	lea    0x1(%rcx),%r14
    33ef:	49 39 d6             	cmp    %rdx,%r14
    33f2:	0f 83 ab 00 00 00    	jae    0x34a3
    33f8:	46 0f b6 34 36       	movzbl (%rsi,%r14,1),%r14d
    33fd:	48 81 fb f0 00 00 00 	cmp    $0xf0,%rbx
    3404:	74 22                	je     0x3428
    3406:	81 fb f4 00 00 00    	cmp    $0xf4,%ebx
    340c:	75 54                	jne    0x3462
    340e:	41 80 fe 8f          	cmp    $0x8f,%r14b
    3412:	7e 5c                	jle    0x3470
    3414:	e9 8f 00 00 00       	jmp    0x34a8
    3419:	41 80 e6 e0          	and    $0xe0,%r14b
    341d:	41 80 fe a0          	cmp    $0xa0,%r14b
    3421:	74 29                	je     0x344c
    3423:	e9 80 00 00 00       	jmp    0x34a8
    3428:	41 80 c6 70          	add    $0x70,%r14b
    342c:	41 80 fe 30          	cmp    $0x30,%r14b
    3430:	72 3e                	jb     0x3470
    3432:	eb 74                	jmp    0x34a8
    3434:	44 8d 7b 1f          	lea    0x1f(%rbx),%r15d
    3438:	41 80 ff 0c          	cmp    $0xc,%r15b
    343c:	72 08                	jb     0x3446
    343e:	80 e3 fe             	and    $0xfe,%bl
    3441:	80 fb ee             	cmp    $0xee,%bl
    3444:	75 62                	jne    0x34a8
    3446:	41 80 fe c0          	cmp    $0xc0,%r14b
    344a:	7d 5c                	jge    0x34a8
    344c:	4c 8d 71 02          	lea    0x2(%rcx),%r14
    3450:	49 39 d6             	cmp    %rdx,%r14
    3453:	73 4e                	jae    0x34a3
    3455:	42 80 3c 36 bf       	cmpb   $0xbf,(%rsi,%r14,1)
    345a:	0f 8e b0 fe ff ff    	jle    0x3310
    3460:	eb 4a                	jmp    0x34ac
    3462:	80 c3 0f             	add    $0xf,%bl
    3465:	80 fb 02             	cmp    $0x2,%bl
    3468:	77 3e                	ja     0x34a8
    346a:	41 80 fe c0          	cmp    $0xc0,%r14b
    346e:	7d 38                	jge    0x34a8
    3470:	48 8d 59 02          	lea    0x2(%rcx),%rbx
    3474:	48 39 d3             	cmp    %rdx,%rbx
    3477:	73 2a                	jae    0x34a3
    3479:	80 3c 1e bf          	cmpb   $0xbf,(%rsi,%rbx,1)
    347d:	7f 2d                	jg     0x34ac
    347f:	4c 8d 71 03          	lea    0x3(%rcx),%r14
    3483:	49 39 d6             	cmp    %rdx,%r14
    3486:	73 1b                	jae    0x34a3
    3488:	42 80 3c 36 c0       	cmpb   $0xc0,(%rsi,%r14,1)
    348d:	0f 8c 7d fe ff ff    	jl     0x3310
    3493:	b3 03                	mov    $0x3,%bl
    3495:	eb 17                	jmp    0x34ae
    3497:	48 89 70 08          	mov    %rsi,0x8(%rax)
    349b:	48 89 50 10          	mov    %rdx,0x10(%rax)
    349f:	31 c9                	xor    %ecx,%ecx
    34a1:	eb 1b                	jmp    0x34be
    34a3:	45 31 c9             	xor    %r9d,%r9d
    34a6:	eb 06                	jmp    0x34ae
    34a8:	b3 01                	mov    $0x1,%bl
    34aa:	eb 02                	jmp    0x34ae
    34ac:	b3 02                	mov    $0x2,%bl
    34ae:	48 89 48 08          	mov    %rcx,0x8(%rax)
    34b2:	44 88 48 10          	mov    %r9b,0x10(%rax)
    34b6:	88 58 11             	mov    %bl,0x11(%rax)
    34b9:	b9 01 00 00 00       	mov    $0x1,%ecx
    34be:	48 89 08             	mov    %rcx,(%rax)
    34c1:	5b                   	pop    %rbx
    34c2:	41 5e                	pop    %r14
    34c4:	41 5f                	pop    %r15
    34c6:	c3                   	ret
    34c7:	cc                   	int3
    34c8:	cc                   	int3
    34c9:	cc                   	int3
    34ca:	cc                   	int3
    34cb:	cc                   	int3
    34cc:	cc                   	int3
    34cd:	cc                   	int3
    34ce:	cc                   	int3
    34cf:	cc                   	int3
    34d0:	55                   	push   %rbp
    34d1:	48 89 e5             	mov    %rsp,%rbp
    34d4:	48 83 ec 30          	sub    $0x30,%rsp
    34d8:	48 39 d7             	cmp    %rdx,%rdi
    34db:	76 3b                	jbe    0x3518
    34dd:	48 89 7d f8          	mov    %rdi,-0x8(%rbp)
    34e1:	48 89 55 f0          	mov    %rdx,-0x10(%rbp)
    34e5:	48 8d 45 f8          	lea    -0x8(%rbp),%rax
    34e9:	48 89 45 d0          	mov    %rax,-0x30(%rbp)
    34ed:	48 8b 05 64 23 00 00 	mov    0x2364(%rip),%rax        # 0x5858
    34f4:	48 89 45 d8          	mov    %rax,-0x28(%rbp)
    34f8:	48 8d 55 f0          	lea    -0x10(%rbp),%rdx
    34fc:	48 89 55 e0          	mov    %rdx,-0x20(%rbp)
    3500:	48 89 45 e8          	mov    %rax,-0x18(%rbp)
    3504:	48 8d 3d 2f 10 00 00 	lea    0x102f(%rip),%rdi        # 0x453a
    350b:	48 8d 75 d0          	lea    -0x30(%rbp),%rsi
    350f:	48 89 ca             	mov    %rcx,%rdx
    3512:	ff 15 38 23 00 00    	call   *0x2338(%rip)        # 0x5850
    3518:	48 39 d6             	cmp    %rdx,%rsi
    351b:	77 40                	ja     0x355d
    351d:	48 39 f7             	cmp    %rsi,%rdi
    3520:	76 3b                	jbe    0x355d
    3522:	48 89 7d f8          	mov    %rdi,-0x8(%rbp)
    3526:	48 89 75 f0          	mov    %rsi,-0x10(%rbp)
    352a:	48 8d 45 f8          	lea    -0x8(%rbp),%rax
    352e:	48 89 45 d0          	mov    %rax,-0x30(%rbp)
    3532:	48 8b 05 1f 23 00 00 	mov    0x231f(%rip),%rax        # 0x5858
    3539:	48 89 45 d8          	mov    %rax,-0x28(%rbp)
    353d:	48 8d 55 f0          	lea    -0x10(%rbp),%rdx
    3541:	48 89 55 e0          	mov    %rdx,-0x20(%rbp)
    3545:	48 89 45 e8          	mov    %rax,-0x18(%rbp)
    3549:	48 8d 3d 17 0f 00 00 	lea    0xf17(%rip),%rdi        # 0x4467
    3550:	48 8d 75 d0          	lea    -0x30(%rbp),%rsi
    3554:	48 89 ca             	mov    %rcx,%rdx
    3557:	ff 15 f3 22 00 00    	call   *0x22f3(%rip)        # 0x5850
    355d:	48 89 75 f8          	mov    %rsi,-0x8(%rbp)
    3561:	48 89 55 f0          	mov    %rdx,-0x10(%rbp)
    3565:	48 8d 45 f8          	lea    -0x8(%rbp),%rax
    3569:	48 89 45 d0          	mov    %rax,-0x30(%rbp)
    356d:	48 8b 05 e4 22 00 00 	mov    0x22e4(%rip),%rax        # 0x5858
    3574:	48 89 45 d8          	mov    %rax,-0x28(%rbp)
    3578:	48 8d 55 f0          	lea    -0x10(%rbp),%rdx
    357c:	48 89 55 e0          	mov    %rdx,-0x20(%rbp)
    3580:	48 89 45 e8          	mov    %rax,-0x18(%rbp)
    3584:	48 8d 3d 3b 0f 00 00 	lea    0xf3b(%rip),%rdi        # 0x44c6
    358b:	48 8d 75 d0          	lea    -0x30(%rbp),%rsi
    358f:	48 89 ca             	mov    %rcx,%rdx
    3592:	ff 15 b8 22 00 00    	call   *0x22b8(%rip)        # 0x5850
    3598:	cc                   	int3
    3599:	cc                   	int3
    359a:	cc                   	int3
    359b:	cc                   	int3
    359c:	cc                   	int3
    359d:	cc                   	int3
    359e:	cc                   	int3
    359f:	cc                   	int3
    35a0:	55                   	push   %rbp
    35a1:	48 89 e5             	mov    %rsp,%rbp
    35a4:	53                   	push   %rbx
    35a5:	50                   	push   %rax
    35a6:	83 ff 20             	cmp    $0x20,%edi
    35a9:	73 04                	jae    0x35af
    35ab:	31 c0                	xor    %eax,%eax
    35ad:	eb 07                	jmp    0x35b6
    35af:	b0 01                	mov    $0x1,%al
    35b1:	83 ff 7f             	cmp    $0x7f,%edi
    35b4:	73 09                	jae    0x35bf
    35b6:	24 01                	and    $0x1,%al
    35b8:	48 83 c4 08          	add    $0x8,%rsp
    35bc:	5b                   	pop    %rbx
    35bd:	5d                   	pop    %rbp
    35be:	c3                   	ret
    35bf:	81 ff 00 00 01 00    	cmp    $0x10000,%edi
    35c5:	0f 83 8d 00 00 00    	jae    0x3658
    35cb:	89 f9                	mov    %edi,%ecx
    35cd:	c1 e9 08             	shr    $0x8,%ecx
    35d0:	31 c0                	xor    %eax,%eax
    35d2:	48 8d 15 36 1e 00 00 	lea    0x1e36(%rip),%rdx        # 0x540f
    35d9:	4c 8d 05 7b 1e 00 00 	lea    0x1e7b(%rip),%r8        # 0x545b
    35e0:	45 31 c9             	xor    %r9d,%r9d
    35e3:	eb 1e                	jmp    0x3603
    35e5:	66 66 2e 0f 1f 84 00 	data16 cs nopw 0x0(%rax,%rax,1)
    35ec:	00 00 00 00 
    35f0:	0f 87 70 01 00 00    	ja     0x3766
    35f6:	48 89 f0             	mov    %rsi,%rax
    35f9:	49 83 f9 4c          	cmp    $0x4c,%r9
    35fd:	0f 84 63 01 00 00    	je     0x3766
    3603:	45 0f b6 54 11 01    	movzbl 0x1(%r9,%rdx,1),%r10d
    3609:	4a 8d 34 10          	lea    (%rax,%r10,1),%rsi
    360d:	41 38 0c 11          	cmp    %cl,(%r9,%rdx,1)
    3611:	4d 8d 49 02          	lea    0x2(%r9),%r9
    3615:	75 d9                	jne    0x35f0
    3617:	48 39 c6             	cmp    %rax,%rsi
    361a:	0f 82 fd 01 00 00    	jb     0x381d
    3620:	48 81 fe 1c 01 00 00 	cmp    $0x11c,%rsi
    3627:	0f 87 f0 01 00 00    	ja     0x381d
    362d:	4d 85 d2             	test   %r10,%r10
    3630:	74 c4                	je     0x35f6
    3632:	45 31 db             	xor    %r11d,%r11d
    3635:	66 66 2e 0f 1f 84 00 	data16 cs nopw 0x0(%rax,%rax,1)
    363c:	00 00 00 00 
    3640:	4a 8d 1c 18          	lea    (%rax,%r11,1),%rbx
    3644:	41 38 3c 18          	cmp    %dil,(%r8,%rbx,1)
    3648:	0f 84 5d ff ff ff    	je     0x35ab
    364e:	49 ff c3             	inc    %r11
    3651:	4d 39 da             	cmp    %r11,%r10
    3654:	75 ea                	jne    0x3640
    3656:	eb 9e                	jmp    0x35f6
    3658:	81 ff 00 00 02 00    	cmp    $0x20000,%edi
    365e:	73 78                	jae    0x36d8
    3660:	89 f9                	mov    %edi,%ecx
    3662:	c1 e9 08             	shr    $0x8,%ecx
    3665:	31 c0                	xor    %eax,%eax
    3667:	48 8d 15 79 1a 00 00 	lea    0x1a79(%rip),%rdx        # 0x50e7
    366e:	4c 8d 05 ce 1a 00 00 	lea    0x1ace(%rip),%r8        # 0x5143
    3675:	45 31 c9             	xor    %r9d,%r9d
    3678:	eb 13                	jmp    0x368d
    367a:	0f 87 42 01 00 00    	ja     0x37c2
    3680:	48 89 f0             	mov    %rsi,%rax
    3683:	49 83 f9 5c          	cmp    $0x5c,%r9
    3687:	0f 84 35 01 00 00    	je     0x37c2
    368d:	45 0f b6 54 11 01    	movzbl 0x1(%r9,%rdx,1),%r10d
    3693:	4a 8d 34 10          	lea    (%rax,%r10,1),%rsi
    3697:	41 38 0c 11          	cmp    %cl,(%r9,%rdx,1)
    369b:	4d 8d 49 02          	lea    0x2(%r9),%r9
    369f:	75 d9                	jne    0x367a
    36a1:	48 39 c6             	cmp    %rax,%rsi
    36a4:	0f 82 88 01 00 00    	jb     0x3832
    36aa:	48 81 fe d4 00 00 00 	cmp    $0xd4,%rsi
    36b1:	0f 87 7b 01 00 00    	ja     0x3832
    36b7:	4d 85 d2             	test   %r10,%r10
    36ba:	74 c4                	je     0x3680
    36bc:	45 31 db             	xor    %r11d,%r11d
    36bf:	90                   	nop
    36c0:	4a 8d 1c 18          	lea    (%rax,%r11,1),%rbx
    36c4:	41 38 3c 18          	cmp    %dil,(%r8,%rbx,1)
    36c8:	0f 84 dd fe ff ff    	je     0x35ab
    36ce:	49 ff c3             	inc    %r11
    36d1:	4d 39 da             	cmp    %r11,%r10
    36d4:	75 ea                	jne    0x36c0
    36d6:	eb a8                	jmp    0x3680
    36d8:	89 f8                	mov    %edi,%eax
    36da:	25 e0 ff 1f 00       	and    $0x1fffe0,%eax
    36df:	3d e0 a6 02 00       	cmp    $0x2a6e0,%eax
    36e4:	0f 95 c0             	setne  %al
    36e7:	89 f9                	mov    %edi,%ecx
    36e9:	81 e1 fe ff 1f 00    	and    $0x1ffffe,%ecx
    36ef:	81 f9 1e b8 02 00    	cmp    $0x2b81e,%ecx
    36f5:	0f 95 c2             	setne  %dl
    36f8:	20 c2                	and    %al,%dl
    36fa:	81 f9 ae ce 02 00    	cmp    $0x2ceae,%ecx
    3700:	0f 95 c0             	setne  %al
    3703:	8d 8f 10 14 fd ff    	lea    -0x2ebf0(%rdi),%ecx
    3709:	83 f9 f1             	cmp    $0xfffffff1,%ecx
    370c:	0f 92 c1             	setb   %cl
    370f:	20 c1                	and    %al,%cl
    3711:	20 d1                	and    %dl,%cl
    3713:	8d 87 00 08 fd ff    	lea    -0x2f800(%rdi),%eax
    3719:	3d 5e f6 ff ff       	cmp    $0xfffff65e,%eax
    371e:	0f 92 c0             	setb   %al
    3721:	8d 97 00 00 fd ff    	lea    -0x30000(%rdi),%edx
    3727:	81 fa 1e fa ff ff    	cmp    $0xfffffa1e,%edx
    372d:	0f 92 c2             	setb   %dl
    3730:	20 c2                	and    %al,%dl
    3732:	8d 87 b0 ec fc ff    	lea    -0x31350(%rdi),%eax
    3738:	83 f8 fb             	cmp    $0xfffffffb,%eax
    373b:	40 0f 92 c6          	setb   %sil
    373f:	40 20 d6             	and    %dl,%sil
    3742:	40 20 ce             	and    %cl,%sil
    3745:	8d 87 00 ff f1 ff    	lea    -0xe0100(%rdi),%eax
    374b:	3d 7a 33 f5 ff       	cmp    $0xfff5337a,%eax
    3750:	0f 92 c1             	setb   %cl
    3753:	81 ff f0 01 0e 00    	cmp    $0xe01f0,%edi
    3759:	0f 92 c0             	setb   %al
    375c:	20 c8                	and    %cl,%al
    375e:	40 20 f0             	and    %sil,%al
    3761:	e9 50 fe ff ff       	jmp    0x35b6
    3766:	b0 01                	mov    $0x1,%al
    3768:	31 c9                	xor    %ecx,%ecx
    376a:	48 8d 15 06 1e 00 00 	lea    0x1e06(%rip),%rdx        # 0x5577
    3771:	eb 1a                	jmp    0x378d
    3773:	4c 89 c1             	mov    %r8,%rcx
    3776:	29 f7                	sub    %esi,%edi
    3778:	0f 88 38 fe ff ff    	js     0x35b6
    377e:	34 01                	xor    $0x1,%al
    3780:	48 81 f9 24 01 00 00 	cmp    $0x124,%rcx
    3787:	0f 84 29 fe ff ff    	je     0x35b6
    378d:	4c 8d 41 01          	lea    0x1(%rcx),%r8
    3791:	0f be 34 11          	movsbl (%rcx,%rdx,1),%esi
    3795:	85 f6                	test   %esi,%esi
    3797:	79 da                	jns    0x3773
    3799:	49 81 f8 24 01 00 00 	cmp    $0x124,%r8
    37a0:	0f 84 a1 00 00 00    	je     0x3847
    37a6:	44 0f b6 44 11 01    	movzbl 0x1(%rcx,%rdx,1),%r8d
    37ac:	48 83 c1 02          	add    $0x2,%rcx
    37b0:	83 e6 7f             	and    $0x7f,%esi
    37b3:	c1 e6 08             	shl    $0x8,%esi
    37b6:	44 09 c6             	or     %r8d,%esi
    37b9:	29 f7                	sub    %esi,%edi
    37bb:	79 c1                	jns    0x377e
    37bd:	e9 f4 fd ff ff       	jmp    0x35b6
    37c2:	0f b7 cf             	movzwl %di,%ecx
    37c5:	b0 01                	mov    $0x1,%al
    37c7:	31 d2                	xor    %edx,%edx
    37c9:	48 8d 35 47 1a 00 00 	lea    0x1a47(%rip),%rsi        # 0x5217
    37d0:	eb 1a                	jmp    0x37ec
    37d2:	4c 89 c2             	mov    %r8,%rdx
    37d5:	29 f9                	sub    %edi,%ecx
    37d7:	0f 88 d9 fd ff ff    	js     0x35b6
    37dd:	34 01                	xor    $0x1,%al
    37df:	48 81 fa f8 01 00 00 	cmp    $0x1f8,%rdx
    37e6:	0f 84 ca fd ff ff    	je     0x35b6
    37ec:	4c 8d 42 01          	lea    0x1(%rdx),%r8
    37f0:	0f be 3c 32          	movsbl (%rdx,%rsi,1),%edi
    37f4:	85 ff                	test   %edi,%edi
    37f6:	79 da                	jns    0x37d2
    37f8:	49 81 f8 f8 01 00 00 	cmp    $0x1f8,%r8
    37ff:	74 46                	je     0x3847
    3801:	44 0f b6 44 32 01    	movzbl 0x1(%rdx,%rsi,1),%r8d
    3807:	48 83 c2 02          	add    $0x2,%rdx
    380b:	83 e7 7f             	and    $0x7f,%edi
    380e:	c1 e7 08             	shl    $0x8,%edi
    3811:	44 09 c7             	or     %r8d,%edi
    3814:	29 f9                	sub    %edi,%ecx
    3816:	79 c5                	jns    0x37dd
    3818:	e9 99 fd ff ff       	jmp    0x35b6
    381d:	48 8d 0d 34 21 00 00 	lea    0x2134(%rip),%rcx        # 0x5958
    3824:	ba 1c 01 00 00       	mov    $0x11c,%edx
    3829:	48 89 c7             	mov    %rax,%rdi
    382c:	ff 15 fe 1f 00 00    	call   *0x1ffe(%rip)        # 0x5830
    3832:	48 8d 0d 1f 21 00 00 	lea    0x211f(%rip),%rcx        # 0x5958
    3839:	ba d4 00 00 00       	mov    $0xd4,%edx
    383e:	48 89 c7             	mov    %rax,%rdi
    3841:	ff 15 e9 1f 00 00    	call   *0x1fe9(%rip)        # 0x5830
    3847:	48 8d 3d 22 21 00 00 	lea    0x2122(%rip),%rdi        # 0x5970
    384e:	ff 15 34 20 00 00    	call   *0x2034(%rip)        # 0x5888
    3854:	cc                   	int3
    3855:	cc                   	int3
    3856:	cc                   	int3
    3857:	cc                   	int3
    3858:	cc                   	int3
    3859:	cc                   	int3
    385a:	cc                   	int3
    385b:	cc                   	int3
    385c:	cc                   	int3
    385d:	cc                   	int3
    385e:	cc                   	int3
    385f:	cc                   	int3
    3860:	31 d2                	xor    %edx,%edx
    3862:	81 ff ab 0e 01 00    	cmp    $0x10eab,%edi
    3868:	0f 93 c2             	setae  %dl
    386b:	89 f8                	mov    %edi,%eax
    386d:	c1 e0 0b             	shl    $0xb,%eax
    3870:	c1 e2 04             	shl    $0x4,%edx
    3873:	48 8d 72 08          	lea    0x8(%rdx),%rsi
    3877:	48 8d 0d 1e 1e 00 00 	lea    0x1e1e(%rip),%rcx        # 0x569c
    387e:	44 8b 44 91 20       	mov    0x20(%rcx,%rdx,4),%r8d
    3883:	41 c1 e0 0b          	shl    $0xb,%r8d
    3887:	41 39 c0             	cmp    %eax,%r8d
    388a:	48 0f 47 f2          	cmova  %rdx,%rsi
    388e:	48 8d 56 04          	lea    0x4(%rsi),%rdx
    3892:	44 8b 44 b1 10       	mov    0x10(%rcx,%rsi,4),%r8d
    3897:	41 c1 e0 0b          	shl    $0xb,%r8d
    389b:	41 39 c0             	cmp    %eax,%r8d
    389e:	48 0f 47 d6          	cmova  %rsi,%rdx
    38a2:	48 8d 72 02          	lea    0x2(%rdx),%rsi
    38a6:	44 8b 44 91 08       	mov    0x8(%rcx,%rdx,4),%r8d
    38ab:	41 c1 e0 0b          	shl    $0xb,%r8d
    38af:	41 39 c0             	cmp    %eax,%r8d
    38b2:	48 0f 47 f2          	cmova  %rdx,%rsi
    38b6:	48 8d 56 01          	lea    0x1(%rsi),%rdx
    38ba:	44 8b 44 b1 04       	mov    0x4(%rcx,%rsi,4),%r8d
    38bf:	41 c1 e0 0b          	shl    $0xb,%r8d
    38c3:	41 39 c0             	cmp    %eax,%r8d
    38c6:	48 0f 47 d6          	cmova  %rsi,%rdx
    38ca:	4c 8d 42 01          	lea    0x1(%rdx),%r8
    38ce:	8b 74 91 04          	mov    0x4(%rcx,%rdx,4),%esi
    38d2:	c1 e6 0b             	shl    $0xb,%esi
    38d5:	39 c6                	cmp    %eax,%esi
    38d7:	4c 0f 47 c2          	cmova  %rdx,%r8
    38db:	42 8b 14 81          	mov    (%rcx,%r8,4),%edx
    38df:	c1 e2 0b             	shl    $0xb,%edx
    38e2:	31 f6                	xor    %esi,%esi
    38e4:	39 c2                	cmp    %eax,%edx
    38e6:	40 0f 94 c6          	sete   %sil
    38ea:	4c 11 c6             	adc    %r8,%rsi
    38ed:	8b 04 b1             	mov    (%rcx,%rsi,4),%eax
    38f0:	c1 e8 15             	shr    $0x15,%eax
    38f3:	ba ff 02 00 00       	mov    $0x2ff,%edx
    38f8:	48 83 fe 1f          	cmp    $0x1f,%rsi
    38fc:	77 0c                	ja     0x390a
    38fe:	8b 54 b1 04          	mov    0x4(%rcx,%rsi,4),%edx
    3902:	c1 ea 15             	shr    $0x15,%edx
    3905:	48 85 f6             	test   %rsi,%rsi
    3908:	74 3f                	je     0x3949
    390a:	41 b8 ff ff 1f 00    	mov    $0x1fffff,%r8d
    3910:	44 23 44 b1 fc       	and    -0x4(%rcx,%rsi,4),%r8d
    3915:	48 89 c1             	mov    %rax,%rcx
    3918:	48 f7 d1             	not    %rcx
    391b:	48 01 d1             	add    %rdx,%rcx
    391e:	74 26                	je     0x3946
    3920:	44 29 c7             	sub    %r8d,%edi
    3923:	48 ff ca             	dec    %rdx
    3926:	31 f6                	xor    %esi,%esi
    3928:	48 8d 0d a5 12 00 00 	lea    0x12a5(%rip),%rcx        # 0x4bd4
    392f:	90                   	nop
    3930:	41 89 f0             	mov    %esi,%r8d
    3933:	0f b6 34 08          	movzbl (%rax,%rcx,1),%esi
    3937:	44 01 c6             	add    %r8d,%esi
    393a:	39 fe                	cmp    %edi,%esi
    393c:	77 08                	ja     0x3946
    393e:	48 ff c0             	inc    %rax
    3941:	48 39 c2             	cmp    %rax,%rdx
    3944:	75 ea                	jne    0x3930
    3946:	24 01                	and    $0x1,%al
    3948:	c3                   	ret
    3949:	45 31 c0             	xor    %r8d,%r8d
    394c:	48 89 c1             	mov    %rax,%rcx
    394f:	48 f7 d1             	not    %rcx
    3952:	48 01 d1             	add    %rdx,%rcx
    3955:	75 c9                	jne    0x3920
    3957:	eb ed                	jmp    0x3946
    3959:	cc                   	int3
    395a:	cc                   	int3
    395b:	cc                   	int3
    395c:	cc                   	int3
    395d:	cc                   	int3
    395e:	cc                   	int3
    395f:	cc                   	int3
    3960:	55                   	push   %rbp
    3961:	48 89 e5             	mov    %rsp,%rbp
    3964:	41 57                	push   %r15
    3966:	41 56                	push   %r14
    3968:	41 54                	push   %r12
    396a:	53                   	push   %rbx
    396b:	4c 89 c3             	mov    %r8,%rbx
    396e:	49 89 ce             	mov    %rcx,%r14
    3971:	49 89 f7             	mov    %rsi,%r15
    3974:	81 fa 00 00 11 00    	cmp    $0x110000,%edx
    397a:	74 14                	je     0x3990
    397c:	49 89 fc             	mov    %rdi,%r12
    397f:	89 d6                	mov    %edx,%esi
    3981:	41 ff 57 20          	call   *0x20(%r15)
    3985:	4c 89 e7             	mov    %r12,%rdi
    3988:	89 c1                	mov    %eax,%ecx
    398a:	b0 01                	mov    $0x1,%al
    398c:	84 c9                	test   %cl,%cl
    398e:	75 1b                	jne    0x39ab
    3990:	4d 85 f6             	test   %r14,%r14
    3993:	74 14                	je     0x39a9
    3995:	49 8b 47 18          	mov    0x18(%r15),%rax
    3999:	4c 89 f6             	mov    %r14,%rsi
    399c:	48 89 da             	mov    %rbx,%rdx
    399f:	5b                   	pop    %rbx
    39a0:	41 5c                	pop    %r12
    39a2:	41 5e                	pop    %r14
    39a4:	41 5f                	pop    %r15
    39a6:	5d                   	pop    %rbp
    39a7:	ff e0                	jmp    *%rax
    39a9:	31 c0                	xor    %eax,%eax
    39ab:	5b                   	pop    %rbx
    39ac:	41 5c                	pop    %r12
    39ae:	41 5e                	pop    %r14
    39b0:	41 5f                	pop    %r15
    39b2:	5d                   	pop    %rbp
    39b3:	c3                   	ret
    39b4:	cc                   	int3
    39b5:	cc                   	int3
    39b6:	cc                   	int3
    39b7:	cc                   	int3
    39b8:	cc                   	int3
    39b9:	cc                   	int3
    39ba:	cc                   	int3
    39bb:	cc                   	int3
    39bc:	cc                   	int3
    39bd:	cc                   	int3
    39be:	cc                   	int3
    39bf:	cc                   	int3
    39c0:	55                   	push   %rbp
    39c1:	48 89 e5             	mov    %rsp,%rbp
    39c4:	53                   	push   %rbx
    39c5:	48 83 ec 18          	sub    $0x18,%rsp
    39c9:	8b 46 10             	mov    0x10(%rsi),%eax
    39cc:	a9 00 00 00 02       	test   $0x2000000,%eax
    39d1:	0f 85 f3 00 00 00    	jne    0x3aca
    39d7:	a9 00 00 00 04       	test   $0x4000000,%eax
    39dc:	0f 85 1a 01 00 00    	jne    0x3afc
    39e2:	4c 8b 07             	mov    (%rdi),%r8
    39e5:	b8 14 00 00 00       	mov    $0x14,%eax
    39ea:	48 8d 3d 2e 15 00 00 	lea    0x152e(%rip),%rdi        # 0x4f1f
    39f1:	4c 89 c2             	mov    %r8,%rdx
    39f4:	49 81 f8 e8 03 00 00 	cmp    $0x3e8,%r8
    39fb:	72 64                	jb     0x3a61
    39fd:	49 b9 4b 59 86 38 d6 	movabs $0x346dc5d63886594b,%r9
    3a04:	c5 6d 34 
    3a07:	4c 89 c1             	mov    %r8,%rcx
    3a0a:	66 0f 1f 44 00 00    	nopw   0x0(%rax,%rax,1)
    3a10:	49 89 c2             	mov    %rax,%r10
    3a13:	48 89 c8             	mov    %rcx,%rax
    3a16:	49 f7 e1             	mul    %r9
    3a19:	48 c1 ea 0b          	shr    $0xb,%rdx
    3a1d:	69 c2 10 27 00 00    	imul   $0x2710,%edx,%eax
    3a23:	41 89 cb             	mov    %ecx,%r11d
    3a26:	41 29 c3             	sub    %eax,%r11d
    3a29:	41 69 c3 7b 14 00 00 	imul   $0x147b,%r11d,%eax
    3a30:	c1 e8 13             	shr    $0x13,%eax
    3a33:	6b d8 64             	imul   $0x64,%eax,%ebx
    3a36:	41 29 db             	sub    %ebx,%r11d
    3a39:	0f b7 04 47          	movzwl (%rdi,%rax,2),%eax
    3a3d:	66 42 89 44 15 e0    	mov    %ax,-0x20(%rbp,%r10,1)
    3a43:	41 0f b7 c3          	movzwl %r11w,%eax
    3a47:	0f b7 04 47          	movzwl (%rdi,%rax,2),%eax
    3a4b:	66 42 89 44 15 e2    	mov    %ax,-0x1e(%rbp,%r10,1)
    3a51:	49 8d 42 fc          	lea    -0x4(%r10),%rax
    3a55:	48 81 f9 7f 96 98 00 	cmp    $0x98967f,%rcx
    3a5c:	48 89 d1             	mov    %rdx,%rcx
    3a5f:	77 af                	ja     0x3a10
    3a61:	48 83 fa 09          	cmp    $0x9,%rdx
    3a65:	76 2b                	jbe    0x3a92
    3a67:	89 d1                	mov    %edx,%ecx
    3a69:	c1 e9 02             	shr    $0x2,%ecx
    3a6c:	0f b7 c9             	movzwl %cx,%ecx
    3a6f:	69 c9 7b 14 00 00    	imul   $0x147b,%ecx,%ecx
    3a75:	c1 e9 11             	shr    $0x11,%ecx
    3a78:	44 6b c9 64          	imul   $0x64,%ecx,%r9d
    3a7c:	44 29 ca             	sub    %r9d,%edx
    3a7f:	0f b7 d2             	movzwl %dx,%edx
    3a82:	0f b7 14 57          	movzwl (%rdi,%rdx,2),%edx
    3a86:	66 89 54 05 e2       	mov    %dx,-0x1e(%rbp,%rax,1)
    3a8b:	48 83 c0 fe          	add    $0xfffffffffffffffe,%rax
    3a8f:	48 89 ca             	mov    %rcx,%rdx
    3a92:	4d 85 c0             	test   %r8,%r8
    3a95:	74 05                	je     0x3a9c
    3a97:	48 85 d2             	test   %rdx,%rdx
    3a9a:	74 0c                	je     0x3aa8
    3a9c:	0f b6 4c 57 01       	movzbl 0x1(%rdi,%rdx,2),%ecx
    3aa1:	88 4c 05 e3          	mov    %cl,-0x1d(%rbp,%rax,1)
    3aa5:	48 ff c8             	dec    %rax
    3aa8:	41 b9 14 00 00 00    	mov    $0x14,%r9d
    3aae:	49 29 c1             	sub    %rax,%r9
    3ab1:	4c 8d 04 28          	lea    (%rax,%rbp,1),%r8
    3ab5:	49 83 c0 e4          	add    $0xffffffffffffffe4,%r8
    3ab9:	ba 01 00 00 00       	mov    $0x1,%edx
    3abe:	48 89 f7             	mov    %rsi,%rdi
    3ac1:	be 01 00 00 00       	mov    $0x1,%esi
    3ac6:	31 c9                	xor    %ecx,%ecx
    3ac8:	eb 7f                	jmp    0x3b49
    3aca:	48 8b 07             	mov    (%rdi),%rax
    3acd:	45 31 c9             	xor    %r9d,%r9d
    3ad0:	48 8d 0d 0d 14 00 00 	lea    0x140d(%rip),%rcx        # 0x4ee4
    3ad7:	66 0f 1f 84 00 00 00 	nopw   0x0(%rax,%rax,1)
    3ade:	00 00 
    3ae0:	89 c2                	mov    %eax,%edx
    3ae2:	83 e2 0f             	and    $0xf,%edx
    3ae5:	48 c1 e8 04          	shr    $0x4,%rax
    3ae9:	0f b6 14 0a          	movzbl (%rdx,%rcx,1),%edx
    3aed:	42 88 54 0d f3       	mov    %dl,-0xd(%rbp,%r9,1)
    3af2:	49 ff c9             	dec    %r9
    3af5:	48 85 c0             	test   %rax,%rax
    3af8:	75 e6                	jne    0x3ae0
    3afa:	eb 2e                	jmp    0x3b2a
    3afc:	48 8b 07             	mov    (%rdi),%rax
    3aff:	45 31 c9             	xor    %r9d,%r9d
    3b02:	48 8d 0d cb 13 00 00 	lea    0x13cb(%rip),%rcx        # 0x4ed4
    3b09:	0f 1f 80 00 00 00 00 	nopl   0x0(%rax)
    3b10:	89 c2                	mov    %eax,%edx
    3b12:	83 e2 0f             	and    $0xf,%edx
    3b15:	48 c1 e8 04          	shr    $0x4,%rax
    3b19:	0f b6 14 0a          	movzbl (%rdx,%rcx,1),%edx
    3b1d:	42 88 54 0d f3       	mov    %dl,-0xd(%rbp,%r9,1)
    3b22:	49 ff c9             	dec    %r9
    3b25:	48 85 c0             	test   %rax,%rax
    3b28:	75 e6                	jne    0x3b10
    3b2a:	4d 8d 04 29          	lea    (%r9,%rbp,1),%r8
    3b2e:	49 83 c0 f4          	add    $0xfffffffffffffff4,%r8
    3b32:	49 f7 d9             	neg    %r9
    3b35:	48 8d 15 e6 1b 00 00 	lea    0x1be6(%rip),%rdx        # 0x5722
    3b3c:	b9 02 00 00 00       	mov    $0x2,%ecx
    3b41:	48 89 f7             	mov    %rsi,%rdi
    3b44:	be 01 00 00 00       	mov    $0x1,%esi
    3b49:	ff 15 21 1d 00 00    	call   *0x1d21(%rip)        # 0x5870
    3b4f:	48 83 c4 18          	add    $0x18,%rsp
    3b53:	5b                   	pop    %rbx
    3b54:	5d                   	pop    %rbp
    3b55:	c3                   	ret
    3b56:	cc                   	int3
    3b57:	cc                   	int3
    3b58:	cc                   	int3
    3b59:	cc                   	int3
    3b5a:	cc                   	int3
    3b5b:	cc                   	int3
    3b5c:	cc                   	int3
    3b5d:	cc                   	int3
    3b5e:	cc                   	int3
    3b5f:	cc                   	int3
    3b60:	55                   	push   %rbp
    3b61:	48 89 e5             	mov    %rsp,%rbp
    3b64:	41 56                	push   %r14
    3b66:	53                   	push   %rbx
    3b67:	48 89 f3             	mov    %rsi,%rbx
    3b6a:	49 89 fe             	mov    %rdi,%r14
    3b6d:	e8 4e fe ff ff       	call   0x39c0
    3b72:	84 c0                	test   %al,%al
    3b74:	75 1a                	jne    0x3b90
    3b76:	48 8b 3b             	mov    (%rbx),%rdi
    3b79:	48 8b 43 08          	mov    0x8(%rbx),%rax
    3b7d:	48 8d 35 9c 1b 00 00 	lea    0x1b9c(%rip),%rsi        # 0x5720
    3b84:	ba 02 00 00 00       	mov    $0x2,%edx
    3b89:	ff 50 18             	call   *0x18(%rax)
    3b8c:	84 c0                	test   %al,%al
    3b8e:	74 07                	je     0x3b97
    3b90:	b0 01                	mov    $0x1,%al
    3b92:	5b                   	pop    %rbx
    3b93:	41 5e                	pop    %r14
    3b95:	5d                   	pop    %rbp
    3b96:	c3                   	ret
    3b97:	49 83 c6 08          	add    $0x8,%r14
    3b9b:	4c 89 f7             	mov    %r14,%rdi
    3b9e:	48 89 de             	mov    %rbx,%rsi
    3ba1:	5b                   	pop    %rbx
    3ba2:	41 5e                	pop    %r14
    3ba4:	5d                   	pop    %rbp
    3ba5:	e9 16 fe ff ff       	jmp    0x39c0
    3baa:	cc                   	int3
    3bab:	cc                   	int3
    3bac:	cc                   	int3
    3bad:	cc                   	int3
    3bae:	cc                   	int3
    3baf:	cc                   	int3
    3bb0:	55                   	push   %rbp
    3bb1:	48 89 e5             	mov    %rsp,%rbp
    3bb4:	53                   	push   %rbx
    3bb5:	48 83 ec 18          	sub    $0x18,%rsp
    3bb9:	4c 8b 07             	mov    (%rdi),%r8
    3bbc:	b8 14 00 00 00       	mov    $0x14,%eax
    3bc1:	48 8d 3d 57 13 00 00 	lea    0x1357(%rip),%rdi        # 0x4f1f
    3bc8:	4c 89 c2             	mov    %r8,%rdx
    3bcb:	49 81 f8 e8 03 00 00 	cmp    $0x3e8,%r8
    3bd2:	72 6d                	jb     0x3c41
    3bd4:	49 b9 4b 59 86 38 d6 	movabs $0x346dc5d63886594b,%r9
    3bdb:	c5 6d 34 
    3bde:	4c 89 c1             	mov    %r8,%rcx
    3be1:	66 66 66 66 66 66 2e 	data16 data16 data16 data16 data16 cs nopw 0x0(%rax,%rax,1)
    3be8:	0f 1f 84 00 00 00 00 
    3bef:	00 
    3bf0:	49 89 c2             	mov    %rax,%r10
    3bf3:	48 89 c8             	mov    %rcx,%rax
    3bf6:	49 f7 e1             	mul    %r9
    3bf9:	48 c1 ea 0b          	shr    $0xb,%rdx
    3bfd:	69 c2 10 27 00 00    	imul   $0x2710,%edx,%eax
    3c03:	41 89 cb             	mov    %ecx,%r11d
    3c06:	41 29 c3             	sub    %eax,%r11d
    3c09:	41 69 c3 7b 14 00 00 	imul   $0x147b,%r11d,%eax
    3c10:	c1 e8 13             	shr    $0x13,%eax
    3c13:	6b d8 64             	imul   $0x64,%eax,%ebx
    3c16:	41 29 db             	sub    %ebx,%r11d
    3c19:	0f b7 04 47          	movzwl (%rdi,%rax,2),%eax
    3c1d:	66 42 89 44 15 e0    	mov    %ax,-0x20(%rbp,%r10,1)
    3c23:	41 0f b7 c3          	movzwl %r11w,%eax
    3c27:	0f b7 04 47          	movzwl (%rdi,%rax,2),%eax
    3c2b:	66 42 89 44 15 e2    	mov    %ax,-0x1e(%rbp,%r10,1)
    3c31:	49 8d 42 fc          	lea    -0x4(%r10),%rax
    3c35:	48 81 f9 7f 96 98 00 	cmp    $0x98967f,%rcx
    3c3c:	48 89 d1             	mov    %rdx,%rcx
    3c3f:	77 af                	ja     0x3bf0
    3c41:	48 83 fa 09          	cmp    $0x9,%rdx
    3c45:	76 2b                	jbe    0x3c72
    3c47:	89 d1                	mov    %edx,%ecx
    3c49:	c1 e9 02             	shr    $0x2,%ecx
    3c4c:	0f b7 c9             	movzwl %cx,%ecx
    3c4f:	69 c9 7b 14 00 00    	imul   $0x147b,%ecx,%ecx
    3c55:	c1 e9 11             	shr    $0x11,%ecx
    3c58:	44 6b c9 64          	imul   $0x64,%ecx,%r9d
    3c5c:	44 29 ca             	sub    %r9d,%edx
    3c5f:	0f b7 d2             	movzwl %dx,%edx
    3c62:	0f b7 14 57          	movzwl (%rdi,%rdx,2),%edx
    3c66:	66 89 54 05 e2       	mov    %dx,-0x1e(%rbp,%rax,1)
    3c6b:	48 83 c0 fe          	add    $0xfffffffffffffffe,%rax
    3c6f:	48 89 ca             	mov    %rcx,%rdx
    3c72:	4d 85 c0             	test   %r8,%r8
    3c75:	74 05                	je     0x3c7c
    3c77:	48 85 d2             	test   %rdx,%rdx
    3c7a:	74 0c                	je     0x3c88
    3c7c:	0f b6 4c 57 01       	movzbl 0x1(%rdi,%rdx,2),%ecx
    3c81:	88 4c 05 e3          	mov    %cl,-0x1d(%rbp,%rax,1)
    3c85:	48 ff c8             	dec    %rax
    3c88:	41 b9 14 00 00 00    	mov    $0x14,%r9d
    3c8e:	49 29 c1             	sub    %rax,%r9
    3c91:	4c 8d 04 28          	lea    (%rax,%rbp,1),%r8
    3c95:	49 83 c0 e4          	add    $0xffffffffffffffe4,%r8
    3c99:	ba 01 00 00 00       	mov    $0x1,%edx
    3c9e:	48 89 f7             	mov    %rsi,%rdi
    3ca1:	be 01 00 00 00       	mov    $0x1,%esi
    3ca6:	31 c9                	xor    %ecx,%ecx
    3ca8:	ff 15 c2 1b 00 00    	call   *0x1bc2(%rip)        # 0x5870
    3cae:	48 83 c4 18          	add    $0x18,%rsp
    3cb2:	5b                   	pop    %rbx
    3cb3:	5d                   	pop    %rbp
    3cb4:	c3                   	ret
    3cb5:	cc                   	int3
    3cb6:	cc                   	int3
    3cb7:	cc                   	int3
    3cb8:	cc                   	int3
    3cb9:	cc                   	int3
    3cba:	cc                   	int3
    3cbb:	cc                   	int3
    3cbc:	cc                   	int3
    3cbd:	cc                   	int3
    3cbe:	cc                   	int3
    3cbf:	cc                   	int3
    3cc0:	55                   	push   %rbp
    3cc1:	48 89 e5             	mov    %rsp,%rbp
    3cc4:	41 57                	push   %r15
    3cc6:	41 56                	push   %r14
    3cc8:	41 54                	push   %r12
    3cca:	53                   	push   %rbx
    3ccb:	48 83 ec 10          	sub    $0x10,%rsp
    3ccf:	49 89 fe             	mov    %rdi,%r14
    3cd2:	48 8b 1e             	mov    (%rsi),%rbx
    3cd5:	4c 8b 66 08          	mov    0x8(%rsi),%r12
    3cd9:	4d 8b 7c 24 20       	mov    0x20(%r12),%r15
    3cde:	48 89 df             	mov    %rbx,%rdi
    3ce1:	be 27 00 00 00       	mov    $0x27,%esi
    3ce6:	41 ff d7             	call   *%r15
    3ce9:	89 c1                	mov    %eax,%ecx
    3ceb:	b0 01                	mov    $0x1,%al
    3ced:	84 c9                	test   %cl,%cl
    3cef:	75 5b                	jne    0x3d4c
    3cf1:	41 8b 36             	mov    (%r14),%esi
    3cf4:	48 8d 7d d0          	lea    -0x30(%rbp),%rdi
    3cf8:	ba 01 01 00 00       	mov    $0x101,%edx
    3cfd:	e8 6e e8 ff ff       	call   0x2570
    3d02:	0f b6 55 dd          	movzbl -0x23(%rbp),%edx
    3d06:	48 81 fa 81 00 00 00 	cmp    $0x81,%rdx
    3d0d:	72 13                	jb     0x3d22
    3d0f:	8b 75 d0             	mov    -0x30(%rbp),%esi
    3d12:	48 89 df             	mov    %rbx,%rdi
    3d15:	41 ff d7             	call   *%r15
    3d18:	89 c1                	mov    %eax,%ecx
    3d1a:	b0 01                	mov    $0x1,%al
    3d1c:	84 c9                	test   %cl,%cl
    3d1e:	74 21                	je     0x3d41
    3d20:	eb 2a                	jmp    0x3d4c
    3d22:	0f b6 45 dc          	movzbl -0x24(%rbp),%eax
    3d26:	48 29 c2             	sub    %rax,%rdx
    3d29:	48 8d 34 28          	lea    (%rax,%rbp,1),%rsi
    3d2d:	48 83 c6 d0          	add    $0xffffffffffffffd0,%rsi
    3d31:	48 89 df             	mov    %rbx,%rdi
    3d34:	41 ff 54 24 18       	call   *0x18(%r12)
    3d39:	89 c1                	mov    %eax,%ecx
    3d3b:	b0 01                	mov    $0x1,%al
    3d3d:	84 c9                	test   %cl,%cl
    3d3f:	75 0b                	jne    0x3d4c
    3d41:	48 89 df             	mov    %rbx,%rdi
    3d44:	be 27 00 00 00       	mov    $0x27,%esi
    3d49:	41 ff d7             	call   *%r15
    3d4c:	48 83 c4 10          	add    $0x10,%rsp
    3d50:	5b                   	pop    %rbx
    3d51:	41 5c                	pop    %r12
    3d53:	41 5e                	pop    %r14
    3d55:	41 5f                	pop    %r15
    3d57:	5d                   	pop    %rbp
    3d58:	c3                   	ret
    3d59:	cc                   	int3
    3d5a:	cc                   	int3
    3d5b:	cc                   	int3
    3d5c:	cc                   	int3
    3d5d:	cc                   	int3
    3d5e:	cc                   	int3
    3d5f:	cc                   	int3
    3d60:	48 89 f8             	mov    %rdi,%rax
    3d63:	41 89 c0             	mov    %eax,%r8d
    3d66:	41 f7 d8             	neg    %r8d
    3d69:	41 83 e0 07          	and    $0x7,%r8d
    3d6d:	4c 39 c2             	cmp    %r8,%rdx
    3d70:	4c 0f 42 c2          	cmovb  %rdx,%r8
    3d74:	4c 89 c1             	mov    %r8,%rcx
    3d77:	f3 a4                	rep movsb (%rsi),(%rdi)
    3d79:	4c 29 c2             	sub    %r8,%rdx
    3d7c:	48 89 d1             	mov    %rdx,%rcx
    3d7f:	48 c1 e9 03          	shr    $0x3,%rcx
    3d83:	f3 48 a5             	rep movsq (%rsi),(%rdi)
    3d86:	83 e2 07             	and    $0x7,%edx
    3d89:	48 89 d1             	mov    %rdx,%rcx
    3d8c:	f3 a4                	rep movsb (%rsi),(%rdi)
    3d8e:	c3                   	ret
    3d8f:	cc                   	int3
    3d90:	55                   	push   %rbp
    3d91:	48 89 e5             	mov    %rsp,%rbp
    3d94:	41 57                	push   %r15
    3d96:	41 56                	push   %r14
    3d98:	41 54                	push   %r12
    3d9a:	53                   	push   %rbx
    3d9b:	48 83 ec 10          	sub    $0x10,%rsp
    3d9f:	48 89 d1             	mov    %rdx,%rcx
    3da2:	48 89 f2             	mov    %rsi,%rdx
    3da5:	48 89 fe             	mov    %rdi,%rsi
    3da8:	49 89 c8             	mov    %rcx,%r8
    3dab:	49 83 e0 f0          	and    $0xfffffffffffffff0,%r8
    3daf:	74 41                	je     0x3df2
    3db1:	4e 8d 0c 06          	lea    (%rsi,%r8,1),%r9
    3db5:	4e 8d 14 02          	lea    (%rdx,%r8,1),%r10
    3db9:	45 31 db             	xor    %r11d,%r11d
    3dbc:	0f 1f 40 00          	nopl   0x0(%rax)
    3dc0:	4a 8b 04 1e          	mov    (%rsi,%r11,1),%rax
    3dc4:	4a 8b 5c 1e 08       	mov    0x8(%rsi,%r11,1),%rbx
    3dc9:	4a 8b 3c 1a          	mov    (%rdx,%r11,1),%rdi
    3dcd:	4e 8b 74 1a 08       	mov    0x8(%rdx,%r11,1),%r14
    3dd2:	49 89 df             	mov    %rbx,%r15
    3dd5:	4d 31 f7             	xor    %r14,%r15
    3dd8:	49 89 c4             	mov    %rax,%r12
    3ddb:	49 31 fc             	xor    %rdi,%r12
    3dde:	4d 09 fc             	or     %r15,%r12
    3de1:	75 1d                	jne    0x3e00
    3de3:	49 83 c3 10          	add    $0x10,%r11
    3de7:	4d 39 d8             	cmp    %r11,%r8
    3dea:	75 d4                	jne    0x3dc0
    3dec:	4c 89 d2             	mov    %r10,%rdx
    3def:	4c 89 ce             	mov    %r9,%rsi
    3df2:	83 e1 0f             	and    $0xf,%ecx
    3df5:	48 8d 7d d8          	lea    -0x28(%rbp),%rdi
    3df9:	e8 62 00 00 00       	call   0x3e60
    3dfe:	eb 53                	jmp    0x3e53
    3e00:	48 39 f8             	cmp    %rdi,%rax
    3e03:	75 0b                	jne    0x3e10
    3e05:	4c 39 f3             	cmp    %r14,%rbx
    3e08:	74 3c                	je     0x3e46
    3e0a:	48 89 d8             	mov    %rbx,%rax
    3e0d:	4c 89 f7             	mov    %r14,%rdi
    3e10:	39 f8                	cmp    %edi,%eax
    3e12:	75 0d                	jne    0x3e21
    3e14:	48 c1 ef 20          	shr    $0x20,%rdi
    3e18:	48 c1 e8 20          	shr    $0x20,%rax
    3e1c:	48 39 f8             	cmp    %rdi,%rax
    3e1f:	74 25                	je     0x3e46
    3e21:	66 39 f8             	cmp    %di,%ax
    3e24:	75 0a                	jne    0x3e30
    3e26:	c1 ef 10             	shr    $0x10,%edi
    3e29:	c1 e8 10             	shr    $0x10,%eax
    3e2c:	39 f8                	cmp    %edi,%eax
    3e2e:	74 16                	je     0x3e46
    3e30:	40 38 f8             	cmp    %dil,%al
    3e33:	75 15                	jne    0x3e4a
    3e35:	0f b7 ff             	movzwl %di,%edi
    3e38:	c1 ef 08             	shr    $0x8,%edi
    3e3b:	0f b7 c0             	movzwl %ax,%eax
    3e3e:	c1 e8 08             	shr    $0x8,%eax
    3e41:	66 39 f8             	cmp    %di,%ax
    3e44:	75 04                	jne    0x3e4a
    3e46:	31 c0                	xor    %eax,%eax
    3e48:	eb 09                	jmp    0x3e53
    3e4a:	0f b6 c0             	movzbl %al,%eax
    3e4d:	40 0f b6 cf          	movzbl %dil,%ecx
    3e51:	29 c8                	sub    %ecx,%eax
    3e53:	48 83 c4 10          	add    $0x10,%rsp
    3e57:	5b                   	pop    %rbx
    3e58:	41 5c                	pop    %r12
    3e5a:	41 5e                	pop    %r14
    3e5c:	41 5f                	pop    %r15
    3e5e:	5d                   	pop    %rbp
    3e5f:	c3                   	ret
    3e60:	41 89 c9             	mov    %ecx,%r9d
    3e63:	41 83 e1 18          	and    $0x18,%r9d
    3e67:	4e 8d 04 0e          	lea    (%rsi,%r9,1),%r8
    3e6b:	4d 85 c9             	test   %r9,%r9
    3e6e:	74 30                	je     0x3ea0
    3e70:	4e 8d 14 0a          	lea    (%rdx,%r9,1),%r10
    3e74:	45 31 db             	xor    %r11d,%r11d
    3e77:	66 0f 1f 84 00 00 00 	nopw   0x0(%rax,%rax,1)
    3e7e:	00 00 
    3e80:	4a 8b 04 1e          	mov    (%rsi,%r11,1),%rax
    3e84:	4a 8b 3c 1a          	mov    (%rdx,%r11,1),%rdi
    3e88:	48 39 f8             	cmp    %rdi,%rax
    3e8b:	0f 85 ad 00 00 00    	jne    0x3f3e
    3e91:	49 83 c3 08          	add    $0x8,%r11
    3e95:	4d 39 d9             	cmp    %r11,%r9
    3e98:	75 e6                	jne    0x3e80
    3e9a:	4c 89 d2             	mov    %r10,%rdx
    3e9d:	4c 89 c6             	mov    %r8,%rsi
    3ea0:	41 89 c9             	mov    %ecx,%r9d
    3ea3:	41 83 e1 04          	and    $0x4,%r9d
    3ea7:	4a 8d 04 0e          	lea    (%rsi,%r9,1),%rax
    3eab:	4d 85 c9             	test   %r9,%r9
    3eae:	74 2f                	je     0x3edf
    3eb0:	4e 8d 14 0a          	lea    (%rdx,%r9,1),%r10
    3eb4:	45 31 db             	xor    %r11d,%r11d
    3eb7:	66 0f 1f 84 00 00 00 	nopw   0x0(%rax,%rax,1)
    3ebe:	00 00 
    3ec0:	43 8b 34 18          	mov    (%r8,%r11,1),%esi
    3ec4:	42 8b 3c 1a          	mov    (%rdx,%r11,1),%edi
    3ec8:	39 fe                	cmp    %edi,%esi
    3eca:	0f 85 ad 00 00 00    	jne    0x3f7d
    3ed0:	49 83 c3 04          	add    $0x4,%r11
    3ed4:	4d 39 d9             	cmp    %r11,%r9
    3ed7:	75 e7                	jne    0x3ec0
    3ed9:	4c 89 d2             	mov    %r10,%rdx
    3edc:	48 89 c6             	mov    %rax,%rsi
    3edf:	41 89 c9             	mov    %ecx,%r9d
    3ee2:	41 83 e1 02          	and    $0x2,%r9d
    3ee6:	74 38                	je     0x3f20
    3ee8:	4c 01 ce             	add    %r9,%rsi
    3eeb:	4e 8d 14 0a          	lea    (%rdx,%r9,1),%r10
    3eef:	45 31 db             	xor    %r11d,%r11d
    3ef2:	66 66 66 66 66 2e 0f 	data16 data16 data16 data16 cs nopw 0x0(%rax,%rax,1)
    3ef9:	1f 84 00 00 00 00 00 
    3f00:	46 0f b7 04 18       	movzwl (%rax,%r11,1),%r8d
    3f05:	42 0f b7 3c 1a       	movzwl (%rdx,%r11,1),%edi
    3f0a:	66 41 39 f8          	cmp    %di,%r8w
    3f0e:	0f 85 94 00 00 00    	jne    0x3fa8
    3f14:	49 83 c3 02          	add    $0x2,%r11
    3f18:	4d 39 d9             	cmp    %r11,%r9
    3f1b:	75 e3                	jne    0x3f00
    3f1d:	4c 89 d2             	mov    %r10,%rdx
    3f20:	31 c0                	xor    %eax,%eax
    3f22:	f6 c1 01             	test   $0x1,%cl
    3f25:	0f 84 a3 00 00 00    	je     0x3fce
    3f2b:	0f b6 0e             	movzbl (%rsi),%ecx
    3f2e:	0f b6 12             	movzbl (%rdx),%edx
    3f31:	38 d1                	cmp    %dl,%cl
    3f33:	0f 84 95 00 00 00    	je     0x3fce
    3f39:	29 d1                	sub    %edx,%ecx
    3f3b:	89 c8                	mov    %ecx,%eax
    3f3d:	c3                   	ret
    3f3e:	39 f8                	cmp    %edi,%eax
    3f40:	75 0d                	jne    0x3f4f
    3f42:	48 c1 ef 20          	shr    $0x20,%rdi
    3f46:	48 c1 e8 20          	shr    $0x20,%rax
    3f4a:	48 39 f8             	cmp    %rdi,%rax
    3f4d:	74 72                	je     0x3fc1
    3f4f:	66 39 f8             	cmp    %di,%ax
    3f52:	75 0a                	jne    0x3f5e
    3f54:	c1 ef 10             	shr    $0x10,%edi
    3f57:	c1 e8 10             	shr    $0x10,%eax
    3f5a:	39 f8                	cmp    %edi,%eax
    3f5c:	74 63                	je     0x3fc1
    3f5e:	40 38 f8             	cmp    %dil,%al
    3f61:	75 11                	jne    0x3f74
    3f63:	0f b7 ff             	movzwl %di,%edi
    3f66:	c1 ef 08             	shr    $0x8,%edi
    3f69:	0f b7 c0             	movzwl %ax,%eax
    3f6c:	c1 e8 08             	shr    $0x8,%eax
    3f6f:	66 39 f8             	cmp    %di,%ax
    3f72:	74 4d                	je     0x3fc1
    3f74:	0f b6 c0             	movzbl %al,%eax
    3f77:	40 0f b6 cf          	movzbl %dil,%ecx
    3f7b:	eb 4f                	jmp    0x3fcc
    3f7d:	66 39 fe             	cmp    %di,%si
    3f80:	75 0a                	jne    0x3f8c
    3f82:	c1 ef 10             	shr    $0x10,%edi
    3f85:	c1 ee 10             	shr    $0x10,%esi
    3f88:	39 fe                	cmp    %edi,%esi
    3f8a:	74 35                	je     0x3fc1
    3f8c:	40 38 fe             	cmp    %dil,%sil
    3f8f:	75 11                	jne    0x3fa2
    3f91:	0f b7 ff             	movzwl %di,%edi
    3f94:	c1 ef 08             	shr    $0x8,%edi
    3f97:	0f b7 f6             	movzwl %si,%esi
    3f9a:	c1 ee 08             	shr    $0x8,%esi
    3f9d:	66 39 fe             	cmp    %di,%si
    3fa0:	74 1f                	je     0x3fc1
    3fa2:	40 0f b6 c6          	movzbl %sil,%eax
    3fa6:	eb 20                	jmp    0x3fc8
    3fa8:	41 38 f8             	cmp    %dil,%r8b
    3fab:	75 17                	jne    0x3fc4
    3fad:	0f b7 ff             	movzwl %di,%edi
    3fb0:	c1 ef 08             	shr    $0x8,%edi
    3fb3:	45 0f b7 c0          	movzwl %r8w,%r8d
    3fb7:	41 c1 e8 08          	shr    $0x8,%r8d
    3fbb:	66 41 39 f8          	cmp    %di,%r8w
    3fbf:	75 03                	jne    0x3fc4
    3fc1:	31 c0                	xor    %eax,%eax
    3fc3:	c3                   	ret
    3fc4:	41 0f b6 c0          	movzbl %r8b,%eax
    3fc8:	40 0f b6 cf          	movzbl %dil,%ecx
    3fcc:	29 c8                	sub    %ecx,%eax
    3fce:	c3                   	ret
	...
    3fe7:	00 01                	add    %al,(%rcx)
    3fe9:	00 00                	add    %al,(%rax)
    3feb:	00 01                	add    %al,(%rcx)
    3fed:	00 00                	add    %al,(%rax)
    3fef:	00 01                	add    %al,(%rcx)
    3ff1:	00 00                	add    %al,(%rax)
    3ff3:	00 1a                	add    %bl,(%rdx)
	...
    4001:	00 00                	add    %al,(%rax)
    4003:	00 01                	add    %al,(%rcx)
    4005:	00 00                	add    %al,(%rax)
    4007:	00 01                	add    %al,(%rcx)
	...
    4015:	00 00                	add    %al,(%rax)
    4017:	00 10                	add    %dl,(%rax)
    4019:	58                   	pop    %rax
    401a:	00 00                	add    %al,(%rax)
    401c:	00 00                	add    %al,(%rax)
    401e:	00 00                	add    %al,(%rax)
    4020:	08 00                	or     %al,(%rax)
    4022:	00 00                	add    %al,(%rax)
    4024:	00 00                	add    %al,(%rax)
    4026:	00 00                	add    %al,(%rax)
    4028:	10 00                	adc    %al,(%rax)
    402a:	00 00                	add    %al,(%rax)
    402c:	00 00                	add    %al,(%rax)
    402e:	00 00                	add    %al,(%rax)
    4030:	18 58 00             	sbb    %bl,0x0(%rax)
    4033:	00 00                	add    %al,(%rax)
    4035:	00 00                	add    %al,(%rax)
    4037:	00 08                	add    %cl,(%rax)
    4039:	00 00                	add    %al,(%rax)
    403b:	00 00                	add    %al,(%rax)
    403d:	00 00                	add    %al,(%rax)
    403f:	00 d0                	add    %dl,%al
    4041:	32 00                	xor    (%rax),%al
    4043:	00 00                	add    %al,(%rax)
    4045:	00 00                	add    %al,(%rax)
    4047:	00 20                	add    %ah,(%rax)
    4049:	58                   	pop    %rax
    404a:	00 00                	add    %al,(%rax)
    404c:	00 00                	add    %al,(%rax)
    404e:	00 00                	add    %al,(%rax)
    4050:	08 00                	or     %al,(%rax)
    4052:	00 00                	add    %al,(%rax)
    4054:	00 00                	add    %al,(%rax)
    4056:	00 00                	add    %al,(%rax)
    4058:	60                   	(bad)
    4059:	3d 00 00 00 00       	cmp    $0x0,%eax
    405e:	00 00                	add    %al,(%rax)
    4060:	28 58 00             	sub    %bl,0x0(%rax)
    4063:	00 00                	add    %al,(%rax)
    4065:	00 00                	add    %al,(%rax)
    4067:	00 08                	add    %cl,(%rax)
    4069:	00 00                	add    %al,(%rax)
    406b:	00 00                	add    %al,(%rax)
    406d:	00 00                	add    %al,(%rax)
    406f:	00 90 3d 00 00 00    	add    %dl,0x3d(%rax)
    4075:	00 00                	add    %al,(%rax)
    4077:	00 30                	add    %dh,(%rax)
    4079:	58                   	pop    %rax
    407a:	00 00                	add    %al,(%rax)
    407c:	00 00                	add    %al,(%rax)
    407e:	00 00                	add    %al,(%rax)
    4080:	08 00                	or     %al,(%rax)
    4082:	00 00                	add    %al,(%rax)
    4084:	00 00                	add    %al,(%rax)
    4086:	00 00                	add    %al,(%rax)
    4088:	d0 34 00             	shlb   $1,(%rax,%rax,1)
    408b:	00 00                	add    %al,(%rax)
    408d:	00 00                	add    %al,(%rax)
    408f:	00 38                	add    %bh,(%rax)
    4091:	58                   	pop    %rax
    4092:	00 00                	add    %al,(%rax)
    4094:	00 00                	add    %al,(%rax)
    4096:	00 00                	add    %al,(%rax)
    4098:	08 00                	or     %al,(%rax)
    409a:	00 00                	add    %al,(%rax)
    409c:	00 00                	add    %al,(%rax)
    409e:	00 00                	add    %al,(%rax)
    40a0:	79 2e                	jns    0x40d0
    40a2:	00 00                	add    %al,(%rax)
    40a4:	00 00                	add    %al,(%rax)
    40a6:	00 00                	add    %al,(%rax)
    40a8:	40 58                	rex pop %rax
    40aa:	00 00                	add    %al,(%rax)
    40ac:	00 00                	add    %al,(%rax)
    40ae:	00 00                	add    %al,(%rax)
    40b0:	08 00                	or     %al,(%rax)
    40b2:	00 00                	add    %al,(%rax)
    40b4:	00 00                	add    %al,(%rax)
    40b6:	00 00                	add    %al,(%rax)
    40b8:	d0 2a                	shrb   $1,(%rdx)
    40ba:	00 00                	add    %al,(%rax)
    40bc:	00 00                	add    %al,(%rax)
    40be:	00 00                	add    %al,(%rax)
    40c0:	48 58                	rex.W pop %rax
    40c2:	00 00                	add    %al,(%rax)
    40c4:	00 00                	add    %al,(%rax)
    40c6:	00 00                	add    %al,(%rax)
    40c8:	08 00                	or     %al,(%rax)
    40ca:	00 00                	add    %al,(%rax)
    40cc:	00 00                	add    %al,(%rax)
    40ce:	00 00                	add    %al,(%rax)
    40d0:	c0 2e 00             	shrb   $0x0,(%rsi)
    40d3:	00 00                	add    %al,(%rax)
    40d5:	00 00                	add    %al,(%rax)
    40d7:	00 50 58             	add    %dl,0x58(%rax)
    40da:	00 00                	add    %al,(%rax)
    40dc:	00 00                	add    %al,(%rax)
    40de:	00 00                	add    %al,(%rax)
    40e0:	08 00                	or     %al,(%rax)
    40e2:	00 00                	add    %al,(%rax)
    40e4:	00 00                	add    %al,(%rax)
    40e6:	00 00                	add    %al,(%rax)
    40e8:	e0 2e                	loopne 0x4118
    40ea:	00 00                	add    %al,(%rax)
    40ec:	00 00                	add    %al,(%rax)
    40ee:	00 00                	add    %al,(%rax)
    40f0:	58                   	pop    %rax
    40f1:	58                   	pop    %rax
    40f2:	00 00                	add    %al,(%rax)
    40f4:	00 00                	add    %al,(%rax)
    40f6:	00 00                	add    %al,(%rax)
    40f8:	08 00                	or     %al,(%rax)
    40fa:	00 00                	add    %al,(%rax)
    40fc:	00 00                	add    %al,(%rax)
    40fe:	00 00                	add    %al,(%rax)
    4100:	b0 3b                	mov    $0x3b,%al
    4102:	00 00                	add    %al,(%rax)
    4104:	00 00                	add    %al,(%rax)
    4106:	00 00                	add    %al,(%rax)
    4108:	60                   	(bad)
    4109:	58                   	pop    %rax
    410a:	00 00                	add    %al,(%rax)
    410c:	00 00                	add    %al,(%rax)
    410e:	00 00                	add    %al,(%rax)
    4110:	08 00                	or     %al,(%rax)
    4112:	00 00                	add    %al,(%rax)
    4114:	00 00                	add    %al,(%rax)
    4116:	00 00                	add    %al,(%rax)
    4118:	60                   	(bad)
    4119:	38 00                	cmp    %al,(%rax)
    411b:	00 00                	add    %al,(%rax)
    411d:	00 00                	add    %al,(%rax)
    411f:	00 68 58             	add    %ch,0x58(%rax)
    4122:	00 00                	add    %al,(%rax)
    4124:	00 00                	add    %al,(%rax)
    4126:	00 00                	add    %al,(%rax)
    4128:	08 00                	or     %al,(%rax)
    412a:	00 00                	add    %al,(%rax)
    412c:	00 00                	add    %al,(%rax)
    412e:	00 00                	add    %al,(%rax)
    4130:	a0 35 00 00 00 00 00 	movabs 0x7000000000000035,%al
    4137:	00 70 
    4139:	58                   	pop    %rax
    413a:	00 00                	add    %al,(%rax)
    413c:	00 00                	add    %al,(%rax)
    413e:	00 00                	add    %al,(%rax)
    4140:	08 00                	or     %al,(%rax)
    4142:	00 00                	add    %al,(%rax)
    4144:	00 00                	add    %al,(%rax)
    4146:	00 00                	add    %al,(%rax)
    4148:	b0 27                	mov    $0x27,%al
    414a:	00 00                	add    %al,(%rax)
    414c:	00 00                	add    %al,(%rax)
    414e:	00 00                	add    %al,(%rax)
    4150:	78 58                	js     0x41aa
    4152:	00 00                	add    %al,(%rax)
    4154:	00 00                	add    %al,(%rax)
    4156:	00 00                	add    %al,(%rax)
    4158:	08 00                	or     %al,(%rax)
    415a:	00 00                	add    %al,(%rax)
    415c:	00 00                	add    %al,(%rax)
    415e:	00 00                	add    %al,(%rax)
    4160:	10 2f                	adc    %ch,(%rdi)
    4162:	00 00                	add    %al,(%rax)
    4164:	00 00                	add    %al,(%rax)
    4166:	00 00                	add    %al,(%rax)
    4168:	80 58 00 00          	sbbb   $0x0,0x0(%rax)
    416c:	00 00                	add    %al,(%rax)
    416e:	00 00                	add    %al,(%rax)
    4170:	08 00                	or     %al,(%rax)
    4172:	00 00                	add    %al,(%rax)
    4174:	00 00                	add    %al,(%rax)
    4176:	00 00                	add    %al,(%rax)
    4178:	e0 2a                	loopne 0x41a4
    417a:	00 00                	add    %al,(%rax)
    417c:	00 00                	add    %al,(%rax)
    417e:	00 00                	add    %al,(%rax)
    4180:	88 58 00             	mov    %bl,0x0(%rax)
    4183:	00 00                	add    %al,(%rax)
    4185:	00 00                	add    %al,(%rax)
    4187:	00 08                	add    %cl,(%rax)
    4189:	00 00                	add    %al,(%rax)
    418b:	00 00                	add    %al,(%rax)
    418d:	00 00                	add    %al,(%rax)
    418f:	00 60 2e             	add    %ah,0x2e(%rax)
    4192:	00 00                	add    %al,(%rax)
    4194:	00 00                	add    %al,(%rax)
    4196:	00 00                	add    %al,(%rax)
    4198:	90                   	nop
    4199:	58                   	pop    %rax
    419a:	00 00                	add    %al,(%rax)
    419c:	00 00                	add    %al,(%rax)
    419e:	00 00                	add    %al,(%rax)
    41a0:	08 00                	or     %al,(%rax)
    41a2:	00 00                	add    %al,(%rax)
    41a4:	00 00                	add    %al,(%rax)
    41a6:	00 00                	add    %al,(%rax)
    41a8:	c0 3c 00 00          	sarb   $0x0,(%rax,%rax,1)
    41ac:	00 00                	add    %al,(%rax)
    41ae:	00 00                	add    %al,(%rax)
    41b0:	98                   	cwtl
    41b1:	58                   	pop    %rax
    41b2:	00 00                	add    %al,(%rax)
    41b4:	00 00                	add    %al,(%rax)
    41b6:	00 00                	add    %al,(%rax)
    41b8:	08 00                	or     %al,(%rax)
    41ba:	00 00                	add    %al,(%rax)
    41bc:	00 00                	add    %al,(%rax)
    41be:	00 00                	add    %al,(%rax)
    41c0:	d9 43 00             	flds   0x0(%rbx)
    41c3:	00 00                	add    %al,(%rax)
    41c5:	00 00                	add    %al,(%rax)
    41c7:	00 b0 58 00 00 00    	add    %dh,0x58(%rax)
    41cd:	00 00                	add    %al,(%rax)
    41cf:	00 08                	add    %cl,(%rax)
    41d1:	00 00                	add    %al,(%rax)
    41d3:	00 00                	add    %al,(%rax)
    41d5:	00 00                	add    %al,(%rax)
    41d7:	00 d9                	add    %bl,%cl
    41d9:	43 00 00             	rex.XB add %al,(%r8)
    41dc:	00 00                	add    %al,(%rax)
    41de:	00 00                	add    %al,(%rax)
    41e0:	c8 58 00 00          	enter  $0x58,$0x0
    41e4:	00 00                	add    %al,(%rax)
    41e6:	00 00                	add    %al,(%rax)
    41e8:	08 00                	or     %al,(%rax)
    41ea:	00 00                	add    %al,(%rax)
    41ec:	00 00                	add    %al,(%rax)
    41ee:	00 00                	add    %al,(%rax)
    41f0:	d9 43 00             	flds   0x0(%rbx)
    41f3:	00 00                	add    %al,(%rax)
    41f5:	00 00                	add    %al,(%rax)
    41f7:	00 e0                	add    %ah,%al
    41f9:	58                   	pop    %rax
    41fa:	00 00                	add    %al,(%rax)
    41fc:	00 00                	add    %al,(%rax)
    41fe:	00 00                	add    %al,(%rax)
    4200:	08 00                	or     %al,(%rax)
    4202:	00 00                	add    %al,(%rax)
    4204:	00 00                	add    %al,(%rax)
    4206:	00 00                	add    %al,(%rax)
    4208:	d9 43 00             	flds   0x0(%rbx)
    420b:	00 00                	add    %al,(%rax)
    420d:	00 00                	add    %al,(%rax)
    420f:	00 f8                	add    %bh,%al
    4211:	58                   	pop    %rax
    4212:	00 00                	add    %al,(%rax)
    4214:	00 00                	add    %al,(%rax)
    4216:	00 00                	add    %al,(%rax)
    4218:	08 00                	or     %al,(%rax)
    421a:	00 00                	add    %al,(%rax)
    421c:	00 00                	add    %al,(%rax)
    421e:	00 00                	add    %al,(%rax)
    4220:	d9 43 00             	flds   0x0(%rbx)
    4223:	00 00                	add    %al,(%rax)
    4225:	00 00                	add    %al,(%rax)
    4227:	00 10                	add    %dl,(%rax)
    4229:	59                   	pop    %rcx
    422a:	00 00                	add    %al,(%rax)
    422c:	00 00                	add    %al,(%rax)
    422e:	00 00                	add    %al,(%rax)
    4230:	08 00                	or     %al,(%rax)
    4232:	00 00                	add    %al,(%rax)
    4234:	00 00                	add    %al,(%rax)
    4236:	00 00                	add    %al,(%rax)
    4238:	d9 43 00             	flds   0x0(%rbx)
    423b:	00 00                	add    %al,(%rax)
    423d:	00 00                	add    %al,(%rax)
    423f:	00 28                	add    %ch,(%rax)
    4241:	59                   	pop    %rcx
    4242:	00 00                	add    %al,(%rax)
    4244:	00 00                	add    %al,(%rax)
    4246:	00 00                	add    %al,(%rax)
    4248:	08 00                	or     %al,(%rax)
    424a:	00 00                	add    %al,(%rax)
    424c:	00 00                	add    %al,(%rax)
    424e:	00 00                	add    %al,(%rax)
    4250:	d9 43 00             	flds   0x0(%rbx)
    4253:	00 00                	add    %al,(%rax)
    4255:	00 00                	add    %al,(%rax)
    4257:	00 40 59             	add    %al,0x59(%rax)
    425a:	00 00                	add    %al,(%rax)
    425c:	00 00                	add    %al,(%rax)
    425e:	00 00                	add    %al,(%rax)
    4260:	08 00                	or     %al,(%rax)
    4262:	00 00                	add    %al,(%rax)
    4264:	00 00                	add    %al,(%rax)
    4266:	00 00                	add    %al,(%rax)
    4268:	d9 43 00             	flds   0x0(%rbx)
    426b:	00 00                	add    %al,(%rax)
    426d:	00 00                	add    %al,(%rax)
    426f:	00 58 59             	add    %bl,0x59(%rax)
    4272:	00 00                	add    %al,(%rax)
    4274:	00 00                	add    %al,(%rax)
    4276:	00 00                	add    %al,(%rax)
    4278:	08 00                	or     %al,(%rax)
    427a:	00 00                	add    %al,(%rax)
    427c:	00 00                	add    %al,(%rax)
    427e:	00 00                	add    %al,(%rax)
    4280:	11 44 00 00          	adc    %eax,0x0(%rax,%rax,1)
    4284:	00 00                	add    %al,(%rax)
    4286:	00 00                	add    %al,(%rax)
    4288:	70 59                	jo     0x42e3
    428a:	00 00                	add    %al,(%rax)
    428c:	00 00                	add    %al,(%rax)
    428e:	00 00                	add    %al,(%rax)
    4290:	08 00                	or     %al,(%rax)
    4292:	00 00                	add    %al,(%rax)
    4294:	00 00                	add    %al,(%rax)
    4296:	00 00                	add    %al,(%rax)
    4298:	11 44 00 00          	adc    %eax,0x0(%rax,%rax,1)
    429c:	00 00                	add    %al,(%rax)
    429e:	00 00                	add    %al,(%rax)
    42a0:	8d                   	lea    (bad),%edx
    42a1:	d2 ff                	sar    %cl,%bh
    42a3:	ff f5                	push   %rbp
    42a5:	d2 ff                	sar    %cl,%bh
    42a7:	ff 44 d3 ff          	incl   -0x1(%rbx,%rdx,8)
    42ab:	ff                   	(bad)
    42ac:	7d d3                	jge    0x4281
    42ae:	ff                   	(bad)
    42af:	ff b2 d3 ff ff 9c    	push   -0x6300002d(%rdx)
    42b5:	d2 ff                	sar    %cl,%bh
    42b7:	ff e6                	jmp    *%rsi
    42b9:	d3 ff                	sar    %cl,%edi
    42bb:	ff 2c d3             	ljmp   *(%rbx,%rdx,8)
    42be:	ff                   	(bad)
    42bf:	ff 66 6f             	jmp    *0x6f(%rsi)
    42c2:	72 6d                	jb     0x4331
    42c4:	61                   	(bad)
    42c5:	74 3a                	je     0x4301
    42c7:	20 66 69             	and    %ah,0x69(%rsi)
    42ca:	6c                   	insb   (%dx),(%rdi)
    42cb:	65 73 79             	gs jae 0x4347
    42ce:	73 74                	jae    0x4344
    42d0:	65 6d                	gs insl (%dx),(%rdi)
    42d2:	20 66 6f             	and    %ah,0x6f(%rsi)
    42d5:	72 6d                	jb     0x4344
    42d7:	61                   	(bad)
    42d8:	74 74                	je     0x434e
    42da:	65 64 2e 0a 66 6f    	gs fs or %fs:0x6f(%rsi),%ah
    42e0:	72 6d                	jb     0x434f
    42e2:	61                   	(bad)
    42e3:	74 3a                	je     0x431f
    42e5:	20 65 72             	and    %ah,0x72(%rbp)
    42e8:	72 6f                	jb     0x4359
    42ea:	72 20                	jb     0x430c
    42ec:	0a 66 6f             	or     0x6f(%rsi),%ah
    42ef:	72 6d                	jb     0x435e
    42f1:	61                   	(bad)
    42f2:	74 3a                	je     0x432e
    42f4:	20 74 68 69          	and    %dh,0x69(%rax,%rbp,2)
    42f8:	73 20                	jae    0x431a
    42fa:	77 69                	ja     0x4365
    42fc:	6c                   	insb   (%dx),(%rdi)
    42fd:	6c                   	insb   (%dx),(%rdi)
    42fe:	20 65 72             	and    %ah,0x72(%rbp)
    4301:	61                   	(bad)
    4302:	73 65                	jae    0x4369
    4304:	20 41 4c             	and    %al,0x4c(%rcx)
    4307:	4c 20 66 69          	rex.WR and %r12b,0x69(%rsi)
    430b:	6c                   	insb   (%dx),(%rdi)
    430c:	65 73 2e             	gs jae 0x433d
    430f:	0a 20                	or     (%rax),%ah
    4311:	20 20                	and    %ah,(%rax)
    4313:	20 20                	and    %ah,(%rax)
    4315:	20 20                	and    %ah,(%rax)
    4317:	20 72 75             	and    %dh,0x75(%rdx)
    431a:	6e                   	outsb  (%rsi),(%dx)
    431b:	20 27                	and    %ah,(%rdi)
    431d:	66 6f                	outsw  (%rsi),(%dx)
    431f:	72 6d                	jb     0x438e
    4321:	61                   	(bad)
    4322:	74 20                	je     0x4344
    4324:	2d 2d 79 65 73       	sub    $0x7365792d,%eax
    4329:	27                   	(bad)
    432a:	20 74 6f 20          	and    %dh,0x20(%rdi,%rbp,2)
    432e:	63 6f 6e             	movsxd 0x6e(%rdi),%ebp
    4331:	66 69 72 6d 2e 0a    	imul   $0xa2e,0x6d(%rdx),%si
    4337:	11 73 74             	adc    %esi,0x74(%rbx)
    433a:	61                   	(bad)
    433b:	72 74                	jb     0x43b1
    433d:	20 62 79             	and    %ah,0x79(%rdx)
    4340:	74 65                	je     0x43a7
    4342:	20 69 6e             	and    %ch,0x6e(%rcx)
    4345:	64 65 78 20          	fs gs js 0x4369
    4349:	c0 26 20             	shlb   $0x20,(%rsi)
    434c:	69 73 20 6e 6f 74 20 	imul   $0x20746f6e,0x20(%rbx),%esi
    4353:	61                   	(bad)
    4354:	20 63 68             	and    %ah,0x68(%rbx)
    4357:	61                   	(bad)
    4358:	72 20                	jb     0x437a
    435a:	62 6f 75 6e 64       	(bad)
    435f:	61                   	(bad)
    4360:	72 79                	jb     0x43db
    4362:	3b 20                	cmp    (%rax),%esp
    4364:	69 74 20 69 73 20 69 	imul   $0x6e692073,0x69(%rax,%riz,1),%esi
    436b:	6e 
    436c:	73 69                	jae    0x43d7
    436e:	64 65 20 c0          	fs gs and %al,%al
    4372:	08 20                	or     %ah,(%rax)
    4374:	28 62 79             	sub    %ah,0x79(%rdx)
    4377:	74 65                	je     0x43de
    4379:	73 20                	jae    0x439b
    437b:	c0 0b 20             	rorb   $0x20,(%rbx)
    437e:	6f                   	outsl  (%rsi),(%dx)
    437f:	66 20 73 74          	data16 and %dh,0x74(%rbx)
    4383:	72 69                	jb     0x43ee
    4385:	6e                   	outsb  (%rsi),(%dx)
    4386:	67 29 00             	sub    %eax,(%eax)
    4389:	0f 65 6e 64          	pcmpgtw 0x64(%rsi),%mm5
    438d:	20 62 79             	and    %ah,0x79(%rdx)
    4390:	74 65                	je     0x43f7
    4392:	20 69 6e             	and    %ch,0x6e(%rcx)
    4395:	64 65 78 20          	fs gs js 0x43b9
    4399:	c0 26 20             	shlb   $0x20,(%rsi)
    439c:	69 73 20 6e 6f 74 20 	imul   $0x20746f6e,0x20(%rbx),%esi
    43a3:	61                   	(bad)
    43a4:	20 63 68             	and    %ah,0x68(%rbx)
    43a7:	61                   	(bad)
    43a8:	72 20                	jb     0x43ca
    43aa:	62 6f 75 6e 64       	(bad)
    43af:	61                   	(bad)
    43b0:	72 79                	jb     0x442b
    43b2:	3b 20                	cmp    (%rax),%esp
    43b4:	69 74 20 69 73 20 69 	imul   $0x6e692073,0x69(%rax,%riz,1),%esi
    43bb:	6e 
    43bc:	73 69                	jae    0x4427
    43be:	64 65 20 c0          	fs gs and %al,%al
    43c2:	08 20                	or     %ah,(%rax)
    43c4:	28 62 79             	sub    %ah,0x79(%rdx)
    43c7:	74 65                	je     0x442e
    43c9:	73 20                	jae    0x43eb
    43cb:	c0 0b 20             	rorb   $0x20,(%rbx)
    43ce:	6f                   	outsl  (%rsi),(%dx)
    43cf:	66 20 73 74          	data16 and %dh,0x74(%rbx)
    43d3:	72 69                	jb     0x443e
    43d5:	6e                   	outsb  (%rsi),(%dx)
    43d6:	67 29 00             	sub    %eax,(%eax)
    43d9:	75 73                	jne    0x444e
    43db:	65 72 2f             	gs jb  0x440d
    43de:	73 72                	jae    0x4452
    43e0:	63 2f                	movsxd (%rdi),%ebp
    43e2:	69 6e 69 74 2e 72 73 	imul   $0x73722e74,0x69(%rsi),%ebp
    43e9:	00 15 62 79 74 65    	add    %dl,0x65747962(%rip)        # 0x6574bd51
    43ef:	20 72 61             	and    %dh,0x61(%rdx)
    43f2:	6e                   	outsb  (%rsi),(%dx)
    43f3:	67 65 20 73 74       	and    %dh,%gs:0x74(%ebx)
    43f8:	61                   	(bad)
    43f9:	72 74                	jb     0x446f
    43fb:	73 20                	jae    0x441d
    43fd:	61                   	(bad)
    43fe:	74 20                	je     0x4420
    4400:	c0 0d 20 62 75 74 20 	rorb   $0x20,0x74756220(%rip)        # 0x7475a627
    4407:	65 6e                	outsb  %gs:(%rsi),(%dx)
    4409:	64 73 20             	fs jae 0x442c
    440c:	61                   	(bad)
    440d:	74 20                	je     0x442f
    440f:	c0 00 2f             	rolb   $0x2f,(%rax)
    4412:	72 75                	jb     0x4489
    4414:	73 74                	jae    0x448a
    4416:	63 2f                	movsxd (%rdi),%ebp
    4418:	61                   	(bad)
    4419:	63 36                	movsxd (%rsi),%esi
    441b:	38 66 61             	cmp    %ah,0x61(%rsi)
    441e:	61                   	(bad)
    441f:	32 30                	xor    (%rax),%dh
    4421:	63 35 38 63 62 63    	movsxd 0x63626338(%rip),%esi        # 0x6362a75f
    4427:	63 64 30 31          	movsxd 0x31(%rax,%rsi,1),%esp
    442b:	65 65 37             	gs gs (bad)
    442e:	32 30                	xor    (%rax),%dh
    4430:	38 62 66             	cmp    %ah,0x66(%rdx)
    4433:	33 62 36             	xor    0x36(%rdx),%esp
    4436:	65 39 33             	cmp    %esi,%gs:(%rbx)
    4439:	61                   	(bad)
    443a:	37                   	(bad)
    443b:	64 37                	fs (bad)
    443d:	66 39 36             	cmp    %si,(%rsi)
    4440:	2f                   	(bad)
    4441:	6c                   	insb   (%dx),(%rdi)
    4442:	69 62 72 61 72 79 2f 	imul   $0x2f797261,0x72(%rdx),%esp
    4449:	63 6f 72             	movsxd 0x72(%rdi),%ebp
    444c:	65 2f                	gs (bad)
    444e:	73 72                	jae    0x44c2
    4450:	63 2f                	movsxd (%rdi),%ebp
    4452:	75 6e                	jne    0x44c2
    4454:	69 63 6f 64 65 2f 70 	imul   $0x702f6564,0x6f(%rbx),%esp
    445b:	72 69                	jb     0x44c6
    445d:	6e                   	outsb  (%rsi),(%dx)
    445e:	74 61                	je     0x44c1
    4460:	62 6c 65 2e 72       	(bad)
    4465:	73 00                	jae    0x4467
    4467:	16                   	(bad)
    4468:	73 6c                	jae    0x44d6
    446a:	69 63 65 20 69 6e 64 	imul   $0x646e6920,0x65(%rbx),%esp
    4471:	65 78 20             	gs js  0x4494
    4474:	73 74                	jae    0x44ea
    4476:	61                   	(bad)
    4477:	72 74                	jb     0x44ed
    4479:	73 20                	jae    0x449b
    447b:	61                   	(bad)
    447c:	74 20                	je     0x449e
    447e:	c0 0d 20 62 75 74 20 	rorb   $0x20,0x74756220(%rip)        # 0x7475a6a5
    4485:	65 6e                	outsb  %gs:(%rsi),(%dx)
    4487:	64 73 20             	fs jae 0x44aa
    448a:	61                   	(bad)
    448b:	74 20                	je     0x44ad
    448d:	c0 00 20             	rolb   $0x20,(%rax)
    4490:	69 6e 64 65 78 20 6f 	imul   $0x6f207865,0x64(%rsi),%ebp
    4497:	75 74                	jne    0x450d
    4499:	20 6f 66             	and    %ch,0x66(%rdi)
    449c:	20 62 6f             	and    %ah,0x6f(%rdx)
    449f:	75 6e                	jne    0x450f
    44a1:	64 73 3a             	fs jae 0x44de
    44a4:	20 74 68 65          	and    %dh,0x65(%rax,%rbp,2)
    44a8:	20 6c 65 6e          	and    %ch,0x6e(%rbp,%riz,2)
    44ac:	20 69 73             	and    %ch,0x73(%rcx)
    44af:	20 c0                	and    %al,%al
    44b1:	12 20                	adc    (%rax),%ah
    44b3:	62 75 74 20 74 68 65 	vcvtbiasph2bf8s 0xca0(%rax),%ymm17,%xmm13
    44ba:	20 69 6e             	and    %ch,0x6e(%rcx)
    44bd:	64 65 78 20          	fs gs js 0x44e1
    44c1:	69 73 20 c0 00 10 72 	imul   $0x721000c0,0x20(%rbx),%esi
    44c8:	61                   	(bad)
    44c9:	6e                   	outsb  (%rsi),(%dx)
    44ca:	67 65 20 65 6e       	and    %ah,%gs:0x6e(%ebp)
    44cf:	64 20 69 6e          	and    %ch,%fs:0x6e(%rcx)
    44d3:	64 65 78 20          	fs gs js 0x44f7
    44d7:	c0 22 20             	shlb   $0x20,(%rdx)
    44da:	6f                   	outsl  (%rsi),(%dx)
    44db:	75 74                	jne    0x4551
    44dd:	20 6f 66             	and    %ch,0x66(%rdi)
    44e0:	20 72 61             	and    %dh,0x61(%rdx)
    44e3:	6e                   	outsb  (%rsi),(%dx)
    44e4:	67 65 20 66 6f       	and    %ah,%gs:0x6f(%esi)
    44e9:	72 20                	jb     0x450b
    44eb:	73 6c                	jae    0x4559
    44ed:	69 63 65 20 6f 66 20 	imul   $0x20666f20,0x65(%rbx),%esp
    44f4:	6c                   	insb   (%dx),(%rdi)
    44f5:	65 6e                	outsb  %gs:(%rsi),(%dx)
    44f7:	67 74 68             	addr32 je 0x4562
    44fa:	20 c0                	and    %al,%al
    44fc:	00 11                	add    %dl,(%rcx)
    44fe:	73 74                	jae    0x4574
    4500:	61                   	(bad)
    4501:	72 74                	jb     0x4577
    4503:	20 62 79             	and    %ah,0x79(%rdx)
    4506:	74 65                	je     0x456d
    4508:	20 69 6e             	and    %ch,0x6e(%rcx)
    450b:	64 65 78 20          	fs gs js 0x452f
    450f:	c0 27 20             	shlb   $0x20,(%rdi)
    4512:	69 73 20 6f 75 74 20 	imul   $0x2074756f,0x20(%rbx),%esi
    4519:	6f                   	outsl  (%rsi),(%dx)
    451a:	66 20 62 6f          	data16 and %ah,0x6f(%rdx)
    451e:	75 6e                	jne    0x458e
    4520:	64 73 20             	fs jae 0x4543
    4523:	66 6f                	outsw  (%rsi),(%dx)
    4525:	72 20                	jb     0x4547
    4527:	73 74                	jae    0x459d
    4529:	72 69                	jb     0x4594
    452b:	6e                   	outsb  (%rsi),(%dx)
    452c:	67 20 6f 66          	and    %ch,0x66(%edi)
    4530:	20 6c 65 6e          	and    %ch,0x6e(%rbp,%riz,2)
    4534:	67 74 68             	addr32 je 0x459f
    4537:	20 c0                	and    %al,%al
    4539:	00 12                	add    %dl,(%rdx)
    453b:	72 61                	jb     0x459e
    453d:	6e                   	outsb  (%rsi),(%dx)
    453e:	67 65 20 73 74       	and    %dh,%gs:0x74(%ebx)
    4543:	61                   	(bad)
    4544:	72 74                	jb     0x45ba
    4546:	20 69 6e             	and    %ch,0x6e(%rcx)
    4549:	64 65 78 20          	fs gs js 0x456d
    454d:	c0 22 20             	shlb   $0x20,(%rdx)
    4550:	6f                   	outsl  (%rsi),(%dx)
    4551:	75 74                	jne    0x45c7
    4553:	20 6f 66             	and    %ch,0x66(%rdi)
    4556:	20 72 61             	and    %dh,0x61(%rdx)
    4559:	6e                   	outsb  (%rsi),(%dx)
    455a:	67 65 20 66 6f       	and    %ah,%gs:0x6f(%esi)
    455f:	72 20                	jb     0x4581
    4561:	73 6c                	jae    0x45cf
    4563:	69 63 65 20 6f 66 20 	imul   $0x20666f20,0x65(%rbx),%esp
    456a:	6c                   	insb   (%dx),(%rdi)
    456b:	65 6e                	outsb  %gs:(%rsi),(%dx)
    456d:	67 74 68             	addr32 je 0x45d8
    4570:	20 c0                	and    %al,%al
    4572:	00 0f                	add    %cl,(%rdi)
    4574:	65 6e                	outsb  %gs:(%rsi),(%dx)
    4576:	64 20 62 79          	and    %ah,%fs:0x79(%rdx)
    457a:	74 65                	je     0x45e1
    457c:	20 69 6e             	and    %ch,0x6e(%rcx)
    457f:	64 65 78 20          	fs gs js 0x45a3
    4583:	c0 27 20             	shlb   $0x20,(%rdi)
    4586:	69 73 20 6f 75 74 20 	imul   $0x2074756f,0x20(%rbx),%esi
    458d:	6f                   	outsl  (%rsi),(%dx)
    458e:	66 20 62 6f          	data16 and %ah,0x6f(%rdx)
    4592:	75 6e                	jne    0x4602
    4594:	64 73 20             	fs jae 0x45b7
    4597:	66 6f                	outsw  (%rsi),(%dx)
    4599:	72 20                	jb     0x45bb
    459b:	73 74                	jae    0x4611
    459d:	72 69                	jb     0x4608
    459f:	6e                   	outsb  (%rsi),(%dx)
    45a0:	67 20 6f 66          	and    %ch,0x66(%edi)
    45a4:	20 6c 65 6e          	and    %ch,0x6e(%rbp,%riz,2)
    45a8:	67 74 68             	addr32 je 0x4613
    45ab:	20 c0                	and    %al,%al
    45ad:	00 74 61 73          	add    %dh,0x73(%rcx,%riz,2)
    45b1:	6b 20 3a             	imul   $0x3a,(%rax),%esp
    45b4:	20 72 75             	and    %dh,0x75(%rdx)
    45b7:	6e                   	outsb  (%rsi),(%dx)
    45b8:	6e                   	outsb  (%rsi),(%dx)
    45b9:	69 6e 67 0a 3a 20 66 	imul   $0x66203a0a,0x67(%rsi),%ebp
    45c0:	69 6e 69 73 68 65 64 	imul   $0x64656873,0x69(%rsi),%ebp
    45c7:	20 28                	and    %ch,(%rax)
    45c9:	65 78 69             	gs js  0x4635
    45cc:	74 20                	je     0x45ee
    45ce:	63 6f 64             	movsxd 0x64(%rdi),%ebp
    45d1:	65 20 29             	and    %ch,%gs:(%rcx)
    45d4:	0a 3a                	or     (%rdx),%bh
    45d6:	20 6e 6f             	and    %ch,0x6f(%rsi)
    45d9:	74 20                	je     0x45fb
    45db:	66 6f                	outsw  (%rsi),(%dx)
    45dd:	75 6e                	jne    0x464d
    45df:	64 0a 3a             	or     %fs:(%rdx),%bh
    45e2:	20 75 6e             	and    %dh,0x6e(%rbp)
    45e5:	6b 6e 6f 77          	imul   $0x77,0x6f(%rsi),%ebp
    45e9:	6e                   	outsb  (%rsi),(%dx)
    45ea:	20 73 74             	and    %dh,0x74(%rbx)
    45ed:	61                   	(bad)
    45ee:	74 75                	je     0x4665
    45f0:	73 20                	jae    0x4612
    45f2:	75 73                	jne    0x4667
    45f4:	61                   	(bad)
    45f5:	67 65 3a 20          	cmp    %gs:(%eax),%ah
    45f9:	73 74                	jae    0x466f
    45fb:	61                   	(bad)
    45fc:	74 75                	je     0x4673
    45fe:	73 20                	jae    0x4620
    4600:	3c 74                	cmp    $0x74,%al
    4602:	61                   	(bad)
    4603:	73 6b                	jae    0x4670
    4605:	5f                   	pop    %rdi
    4606:	69 64 3e 0a 2d 30 3f 	imul   $0x283f302d,0xa(%rsi,%rdi,1),%esp
    460d:	28 
    460e:	6e                   	outsb  (%rsi),(%dx)
    460f:	6f                   	outsl  (%rsi),(%dx)
    4610:	20 66 69             	and    %ah,0x69(%rsi)
    4613:	6c                   	insb   (%dx),(%rdi)
    4614:	65 73 29             	gs jae 0x4640
    4617:	0a 4e 41             	or     0x41(%rsi),%cl
    461a:	4d                   	rex.WRB
    461b:	45 20 20             	and    %r12b,(%r8)
    461e:	20 20                	and    %ah,(%rax)
    4620:	20 20                	and    %ah,(%rax)
    4622:	20 20                	and    %ah,(%rax)
    4624:	20 20                	and    %ah,(%rax)
    4626:	20 20                	and    %ah,(%rax)
    4628:	20 20                	and    %ah,(%rax)
    462a:	20 20                	and    %ah,(%rax)
    462c:	20 20                	and    %ah,(%rax)
    462e:	20 20                	and    %ah,(%rax)
    4630:	20 20                	and    %ah,(%rax)
    4632:	20 20                	and    %ah,(%rax)
    4634:	20 20                	and    %ah,(%rax)
    4636:	20 20                	and    %ah,(%rax)
    4638:	20 20                	and    %ah,(%rax)
    463a:	20 20                	and    %ah,(%rax)
    463c:	20 20                	and    %ah,(%rax)
    463e:	20 20                	and    %ah,(%rax)
    4640:	20 20                	and    %ah,(%rax)
    4642:	20 20                	and    %ah,(%rax)
    4644:	20 20                	and    %ah,(%rax)
    4646:	20 20                	and    %ah,(%rax)
    4648:	53                   	push   %rbx
    4649:	49 5a                	rex.WB pop %r10
    464b:	45 0a 2d 2d 2d 2d 2d 	or     0x2d2d2d2d(%rip),%r13b        # 0x2d2d737f
    4652:	2d 2d 2d 2d 2d       	sub    $0x2d2d2d2d,%eax
    4657:	2d 2d 2d 2d 2d       	sub    $0x2d2d2d2d,%eax
    465c:	2d 2d 2d 2d 2d       	sub    $0x2d2d2d2d,%eax
    4661:	2d 2d 2d 2d 2d       	sub    $0x2d2d2d2d,%eax
    4666:	2d 2d 2d 2d 2d       	sub    $0x2d2d2d2d,%eax
    466b:	2d 2d 2d 2d 2d       	sub    $0x2d2d2d2d,%eax
    4670:	2d 2d 2d 2d 2d       	sub    $0x2d2d2d2d,%eax
    4675:	2d 2d 2d 2d 2d       	sub    $0x2d2d2d2d,%eax
    467a:	2d 2d 2d 2b 2d       	sub    $0x2d2b2d2d,%eax
    467f:	2d 2d 2d 2d 2d       	sub    $0x2d2d2d2d,%eax
    4684:	2d 2d 2d 2d 0a       	sub    $0xa2d2d2d,%eax
    4689:	28 6f 75             	sub    %ch,0x75(%rdi)
    468c:	74 70                	je     0x46fe
    468e:	75 74                	jne    0x4704
    4690:	20 74 72 75          	and    %dh,0x75(%rdx,%rsi,2)
    4694:	6e                   	outsb  (%rsi),(%dx)
    4695:	63 61 74             	movsxd 0x74(%rcx),%esp
    4698:	65 64 20 e2          	gs fs and %ah,%dl
    469c:	80 94 20 69 6e 63 72 	adcb   $0x65,0x72636e69(%rax,%riz,1)
    46a3:	65 
    46a4:	61                   	(bad)
    46a5:	73 65                	jae    0x470c
    46a7:	20 65 6e             	and    %ah,0x6e(%rbp)
    46aa:	74 72                	je     0x471e
    46ac:	69 65 73 20 62 75 66 	imul   $0x66756220,0x73(%rbp),%esp
    46b3:	66 65 72 29          	data16 gs jb 0x46e0
    46b7:	0a 3f                	or     (%rdi),%bh
    46b9:	3f                   	(bad)
    46ba:	3f                   	(bad)
    46bb:	20 62 79             	and    %ah,0x79(%rdx)
    46be:	74 65                	je     0x4725
    46c0:	73 0a                	jae    0x46cc
    46c2:	20 6c 73 3a          	and    %ch,0x3a(%rbx,%rsi,2)
    46c6:	20 66 69             	and    %ah,0x69(%rsi)
    46c9:	6c                   	insb   (%dx),(%rdi)
    46ca:	65 73 79             	gs jae 0x4746
    46cd:	73 74                	jae    0x4743
    46cf:	65 6d                	gs insl (%dx),(%rdi)
    46d1:	20 65 72             	and    %ah,0x72(%rbp)
    46d4:	72 6f                	jb     0x4745
    46d6:	72 0a                	jb     0x46e2
    46d8:	72 6d                	jb     0x4747
    46da:	3a 20                	cmp    (%rax),%ah
    46dc:	64 65 6c             	fs gs insb (%dx),(%rdi)
    46df:	65 74 65             	gs je  0x4747
    46e2:	64 20 27             	and    %ah,%fs:(%rdi)
    46e5:	27                   	(bad)
    46e6:	0a 72 6d             	or     0x6d(%rdx),%dh
    46e9:	3a 20                	cmp    (%rax),%ah
    46eb:	65 72 72             	gs jb  0x4760
    46ee:	6f                   	outsl  (%rsi),(%dx)
    46ef:	72 20                	jb     0x4711
    46f1:	75 73                	jne    0x4766
    46f3:	61                   	(bad)
    46f4:	67 65 3a 20          	cmp    %gs:(%eax),%ah
    46f8:	72 6d                	jb     0x4767
    46fa:	20 3c 66             	and    %bh,(%rsi,%riz,2)
    46fd:	69 6c 65 3e 0a 63 61 	imul   $0x7461630a,0x3e(%rbp,%riz,2),%ebp
    4704:	74 
    4705:	3a 20                	cmp    (%rax),%ah
    4707:	63 6f 75             	movsxd 0x75(%rdi),%ebp
    470a:	6c                   	insb   (%dx),(%rdi)
    470b:	64 20 6e 6f          	and    %ch,%fs:0x6f(%rsi)
    470f:	74 20                	je     0x4731
    4711:	72 65                	jb     0x4778
    4713:	61                   	(bad)
    4714:	64 20 27             	and    %ah,%fs:(%rdi)
    4717:	75 73                	jne    0x478c
    4719:	61                   	(bad)
    471a:	67 65 3a 20          	cmp    %gs:(%eax),%ah
    471e:	63 61 74             	movsxd 0x74(%rcx),%esp
    4721:	20 3c 66             	and    %bh,(%rsi,%riz,2)
    4724:	69 6c 65 3e 0a 6b 69 	imul   $0x6c696b0a,0x3e(%rbp,%riz,2),%ebp
    472b:	6c 
    472c:	6c                   	insb   (%dx),(%rdi)
    472d:	3a 20                	cmp    (%rax),%ah
    472f:	74 61                	je     0x4792
    4731:	73 6b                	jae    0x479e
    4733:	20 20                	and    %ah,(%rax)
    4735:	69 73 20 72 75 6e 6e 	imul   $0x6e6e7572,0x20(%rbx),%esi
    473c:	69 6e 67 20 28 6e 6f 	imul   $0x6f6e2820,0x67(%rsi),%ebp
    4743:	20 63 72             	and    %ah,0x72(%rbx)
    4746:	6f                   	outsl  (%rsi),(%dx)
    4747:	73 73                	jae    0x47bc
    4749:	2d 74 61 73 6b       	sub    $0x6b736174,%eax
    474e:	20 6b 69             	and    %ch,0x69(%rbx)
    4751:	6c                   	insb   (%dx),(%rdi)
    4752:	6c                   	insb   (%dx),(%rdi)
    4753:	20 73 79             	and    %dh,0x79(%rbx)
    4756:	73 63                	jae    0x47bb
    4758:	61                   	(bad)
    4759:	6c                   	insb   (%dx),(%rdi)
    475a:	6c                   	insb   (%dx),(%rdi)
    475b:	20 61 76             	and    %ah,0x76(%rcx)
    475e:	61                   	(bad)
    475f:	69 6c 61 62 6c 65 20 	imul   $0x7920656c,0x62(%rcx,%riz,2),%ebp
    4766:	79 
    4767:	65 74 29             	gs je  0x4793
    476a:	0a 20                	or     (%rax),%ah
    476c:	68 61 73 20 61       	push   $0x61207361
    4771:	6c                   	insb   (%dx),(%rdi)
    4772:	72 65                	jb     0x47d9
    4774:	61                   	(bad)
    4775:	64 79 20             	fs jns 0x4798
    4778:	66 69 6e 69 73 68    	imul   $0x6873,0x69(%rsi),%bp
    477e:	65 64 0a 20          	gs or  %fs:(%rax),%ah
    4782:	6e                   	outsb  (%rsi),(%dx)
    4783:	6f                   	outsl  (%rsi),(%dx)
    4784:	74 20                	je     0x47a6
    4786:	66 6f                	outsw  (%rsi),(%dx)
    4788:	75 6e                	jne    0x47f8
    478a:	64 0a 6b 69          	or     %fs:0x69(%rbx),%ch
    478e:	6c                   	insb   (%dx),(%rdi)
    478f:	6c                   	insb   (%dx),(%rdi)
    4790:	3a 20                	cmp    (%rax),%ah
    4792:	75 6e                	jne    0x4802
    4794:	6b 6e 6f 77          	imul   $0x77,0x6f(%rsi),%ebp
    4798:	6e                   	outsb  (%rsi),(%dx)
    4799:	20 73 74             	and    %dh,0x74(%rbx)
    479c:	61                   	(bad)
    479d:	74 75                	je     0x4814
    479f:	73 20                	jae    0x47c1
    47a1:	66 6f                	outsw  (%rsi),(%dx)
    47a3:	72 20                	jb     0x47c5
    47a5:	74 61                	je     0x4808
    47a7:	73 6b                	jae    0x4814
    47a9:	20 75 73             	and    %dh,0x73(%rbp)
    47ac:	61                   	(bad)
    47ad:	67 65 3a 20          	cmp    %gs:(%eax),%ah
    47b1:	6b 69 6c 6c          	imul   $0x6c,0x6c(%rcx),%ebp
    47b5:	20 3c 74             	and    %bh,(%rsp,%rsi,2)
    47b8:	61                   	(bad)
    47b9:	73 6b                	jae    0x4826
    47bb:	5f                   	pop    %rdi
    47bc:	69 64 3e 0a 75 6e 6b 	imul   $0x6e6b6e75,0xa(%rsi,%rdi,1),%esp
    47c3:	6e 
    47c4:	6f                   	outsl  (%rsi),(%dx)
    47c5:	77 6e                	ja     0x4835
    47c7:	20 63 6f             	and    %ah,0x6f(%rbx)
    47ca:	6d                   	insl   (%dx),(%rdi)
    47cb:	6d                   	insl   (%dx),(%rdi)
    47cc:	61                   	(bad)
    47cd:	6e                   	outsb  (%rsi),(%dx)
    47ce:	64 3a 20             	cmp    %fs:(%rax),%ah
    47d1:	27                   	(bad)
    47d2:	27                   	(bad)
    47d3:	20 28                	and    %ch,(%rax)
    47d5:	74 79                	je     0x4850
    47d7:	70 65                	jo     0x483e
    47d9:	20 27                	and    %ah,(%rdi)
    47db:	68 65 6c 70 27       	push   $0x27706c65
    47e0:	20 66 6f             	and    %ah,0x6f(%rsi)
    47e3:	72 20                	jb     0x4805
    47e5:	61                   	(bad)
    47e6:	20 6c 69 73          	and    %ch,0x73(%rcx,%rbp,2)
    47ea:	74 29                	je     0x4815
    47ec:	0a 53 68             	or     0x68(%rbx),%dl
    47ef:	75 74                	jne    0x4865
    47f1:	74 69                	je     0x485c
    47f3:	6e                   	outsb  (%rsi),(%dx)
    47f4:	67 20 64 6f 77       	and    %ah,0x77(%edi,%ebp,2)
    47f9:	6e                   	outsb  (%rsi),(%dx)
    47fa:	2e 2e 2e 0a 41 76    	cs cs cs or 0x76(%rcx),%al
    4800:	61                   	(bad)
    4801:	69 6c 61 62 6c 65 20 	imul   $0x6320656c,0x62(%rcx,%riz,2),%ebp
    4808:	63 
    4809:	6f                   	outsl  (%rsi),(%dx)
    480a:	6d                   	insl   (%dx),(%rdi)
    480b:	6d                   	insl   (%dx),(%rdi)
    480c:	61                   	(bad)
    480d:	6e                   	outsb  (%rsi),(%dx)
    480e:	64 73 3a             	fs jae 0x484b
    4811:	0a 0a                	or     (%rdx),%cl
    4813:	6c                   	insb   (%dx),(%rdi)
    4814:	73 20                	jae    0x4836
    4816:	20 20                	and    %ah,(%rax)
    4818:	20 20                	and    %ah,(%rax)
    481a:	20 20                	and    %ah,(%rax)
    481c:	20 20                	and    %ah,(%rax)
    481e:	20 20                	and    %ah,(%rax)
    4820:	20 20                	and    %ah,(%rax)
    4822:	20 20                	and    %ah,(%rax)
    4824:	20 20                	and    %ah,(%rax)
    4826:	20 20                	and    %ah,(%rax)
    4828:	20 20                	and    %ah,(%rax)
    482a:	4c 69 73 74 20 66 69 	imul   $0x6c696620,0x74(%rbx),%r14
    4831:	6c 
    4832:	65 73 20             	gs jae 0x4855
    4835:	6f                   	outsl  (%rsi),(%dx)
    4836:	6e                   	outsb  (%rsi),(%dx)
    4837:	20 74 68 65          	and    %dh,0x65(%rax,%rbp,2)
    483b:	20 66 69             	and    %ah,0x69(%rsi)
    483e:	6c                   	insb   (%dx),(%rdi)
    483f:	65 73 79             	gs jae 0x48bb
    4842:	73 74                	jae    0x48b8
    4844:	65 6d                	gs insl (%dx),(%rdi)
    4846:	0a 63 61             	or     0x61(%rbx),%ah
    4849:	74 20                	je     0x486b
    484b:	3c 66                	cmp    $0x66,%al
    484d:	69 6c 65 3e 20 20 20 	imul   $0x20202020,0x3e(%rbp,%riz,2),%ebp
    4854:	20 
    4855:	20 20                	and    %ah,(%rax)
    4857:	20 20                	and    %ah,(%rax)
    4859:	20 20                	and    %ah,(%rax)
    485b:	20 20                	and    %ah,(%rax)
    485d:	20 50 72             	and    %dl,0x72(%rax)
    4860:	69 6e 74 20 66 69 6c 	imul   $0x6c696620,0x74(%rsi),%ebp
    4867:	65 20 63 6f          	and    %ah,%gs:0x6f(%rbx)
    486b:	6e                   	outsb  (%rsi),(%dx)
    486c:	74 65                	je     0x48d3
    486e:	6e                   	outsb  (%rsi),(%dx)
    486f:	74 73                	je     0x48e4
    4871:	0a 77 72             	or     0x72(%rdi),%dh
    4874:	69 74 65 20 3c 66 69 	imul   $0x6c69663c,0x20(%rbp,%riz,2),%esi
    487b:	6c 
    487c:	65 3e 20 3c 74       	gs and %bh,%gs:(%rsp,%rsi,2)
    4881:	65 78 74             	gs js  0x48f8
    4884:	3e 20 20             	ds and %ah,(%rax)
    4887:	20 20                	and    %ah,(%rax)
    4889:	57                   	push   %rdi
    488a:	72 69                	jb     0x48f5
    488c:	74 65                	je     0x48f3
    488e:	20 74 65 78          	and    %dh,0x78(%rbp,%riz,2)
    4892:	74 20                	je     0x48b4
    4894:	74 6f                	je     0x4905
    4896:	20 61 20             	and    %ah,0x20(%rcx)
    4899:	66 69 6c 65 20 28 6f 	imul   $0x6f28,0x20(%rbp,%riz,2),%bp
    48a0:	76 65                	jbe    0x4907
    48a2:	72 77                	jb     0x491b
    48a4:	72 69                	jb     0x490f
    48a6:	74 65                	je     0x490d
    48a8:	73 29                	jae    0x48d3
    48aa:	0a 72 6d             	or     0x6d(%rdx),%dh
    48ad:	20 3c 66             	and    %bh,(%rsi,%riz,2)
    48b0:	69 6c 65 3e 20 20 20 	imul   $0x20202020,0x3e(%rbp,%riz,2),%ebp
    48b7:	20 
    48b8:	20 20                	and    %ah,(%rax)
    48ba:	20 20                	and    %ah,(%rax)
    48bc:	20 20                	and    %ah,(%rax)
    48be:	20 20                	and    %ah,(%rax)
    48c0:	20 20                	and    %ah,(%rax)
    48c2:	44                   	rex.R
    48c3:	65 6c                	gs insb (%dx),(%rdi)
    48c5:	65 74 65             	gs je  0x492d
    48c8:	20 61 20             	and    %ah,0x20(%rcx)
    48cb:	66 69 6c 65 0a 66 6f 	imul   $0x6f66,0xa(%rbp,%riz,2),%bp
    48d2:	72 6d                	jb     0x4941
    48d4:	61                   	(bad)
    48d5:	74 20                	je     0x48f7
    48d7:	20 20                	and    %ah,(%rax)
    48d9:	20 20                	and    %ah,(%rax)
    48db:	20 20                	and    %ah,(%rax)
    48dd:	20 20                	and    %ah,(%rax)
    48df:	20 20                	and    %ah,(%rax)
    48e1:	20 20                	and    %ah,(%rax)
    48e3:	20 20                	and    %ah,(%rax)
    48e5:	20 20                	and    %ah,(%rax)
    48e7:	46 6f                	rex.RX outsl (%rsi),(%dx)
    48e9:	72 6d                	jb     0x4958
    48eb:	61                   	(bad)
    48ec:	74 20                	je     0x490e
    48ee:	74 68                	je     0x4958
    48f0:	65 20 66 69          	and    %ah,%gs:0x69(%rsi)
    48f4:	6c                   	insb   (%dx),(%rdi)
    48f5:	65 73 79             	gs jae 0x4971
    48f8:	73 74                	jae    0x496e
    48fa:	65 6d                	gs insl (%dx),(%rdi)
    48fc:	20 28                	and    %ch,(%rax)
    48fe:	44                   	rex.R
    48ff:	45 53                	rex.RB push %r11
    4901:	54                   	push   %rsp
    4902:	52                   	push   %rdx
    4903:	55                   	push   %rbp
    4904:	43 54                	rex.XB push %r12
    4906:	49 56                	rex.WB push %r14
    4908:	45 29 0a             	sub    %r9d,(%r10)
    490b:	0a 72 75             	or     0x75(%rdx),%dh
    490e:	6e                   	outsb  (%rsi),(%dx)
    490f:	20 3c 74             	and    %bh,(%rsp,%rsi,2)
    4912:	61                   	(bad)
    4913:	73 6b                	jae    0x4980
    4915:	5f                   	pop    %rdi
    4916:	69 64 3e 20 20 20 20 	imul   $0x20202020,0x20(%rsi,%rdi,1),%esp
    491d:	20 
    491e:	20 20                	and    %ah,(%rax)
    4920:	20 20                	and    %ah,(%rax)
    4922:	20 28                	and    %ch,(%rax)
    4924:	70 6c                	jo     0x4992
    4926:	61                   	(bad)
    4927:	63 65 68             	movsxd 0x68(%rbp),%esp
    492a:	6f                   	outsl  (%rsi),(%dx)
    492b:	6c                   	insb   (%dx),(%rdi)
    492c:	64 65 72 29          	fs gs jb 0x4959
    4930:	20 73 68             	and    %dh,0x68(%rbx)
    4933:	6f                   	outsl  (%rsi),(%dx)
    4934:	77 20                	ja     0x4956
    4936:	68 6f 77 20 74       	push   $0x7420776f
    493b:	6f                   	outsl  (%rsi),(%dx)
    493c:	20 73 70             	and    %dh,0x70(%rbx)
    493f:	61                   	(bad)
    4940:	77 6e                	ja     0x49b0
    4942:	20 61 20             	and    %ah,0x20(%rcx)
    4945:	74 61                	je     0x49a8
    4947:	73 6b                	jae    0x49b4
    4949:	0a 6b 69             	or     0x69(%rbx),%ch
    494c:	6c                   	insb   (%dx),(%rdi)
    494d:	6c                   	insb   (%dx),(%rdi)
    494e:	20 3c 74             	and    %bh,(%rsp,%rsi,2)
    4951:	61                   	(bad)
    4952:	73 6b                	jae    0x49bf
    4954:	5f                   	pop    %rdi
    4955:	69 64 3e 20 20 20 20 	imul   $0x20202020,0x20(%rsi,%rdi,1),%esp
    495c:	20 
    495d:	20 20                	and    %ah,(%rax)
    495f:	20 20                	and    %ah,(%rax)
    4961:	54                   	push   %rsp
    4962:	65 72 6d             	gs jb  0x49d2
    4965:	69 6e 61 74 65 20 61 	imul   $0x61206574,0x61(%rsi),%ebp
    496c:	20 74 61 73          	and    %dh,0x73(%rcx,%riz,2)
    4970:	6b 20 62             	imul   $0x62,(%rax),%esp
    4973:	79 20                	jns    0x4995
    4975:	49                   	rex.WB
    4976:	44 0a 73 74          	or     0x74(%rbx),%r14b
    497a:	61                   	(bad)
    497b:	74 75                	je     0x49f2
    497d:	73 20                	jae    0x499f
    497f:	3c 74                	cmp    $0x74,%al
    4981:	61                   	(bad)
    4982:	73 6b                	jae    0x49ef
    4984:	5f                   	pop    %rdi
    4985:	69 64 3e 20 20 20 20 	imul   $0x20202020,0x20(%rsi,%rdi,1),%esp
    498c:	20 
    498d:	20 20                	and    %ah,(%rax)
    498f:	53                   	push   %rbx
    4990:	68 6f 77 20 74       	push   $0x7420776f
    4995:	61                   	(bad)
    4996:	73 6b                	jae    0x4a03
    4998:	20 73 74             	and    %dh,0x74(%rbx)
    499b:	61                   	(bad)
    499c:	74 75                	je     0x4a13
    499e:	73 20                	jae    0x49c0
    49a0:	61                   	(bad)
    49a1:	6e                   	outsb  (%rsi),(%dx)
    49a2:	64 20 65 78          	and    %ah,%fs:0x78(%rbp)
    49a6:	69 74 20 63 6f 64 65 	imul   $0xa65646f,0x63(%rax,%riz,1),%esi
    49ad:	0a 
    49ae:	0a 63 6c             	or     0x6c(%rbx),%ah
    49b1:	65 61                	gs (bad)
    49b3:	72 20                	jb     0x49d5
    49b5:	20 20                	and    %ah,(%rax)
    49b7:	20 20                	and    %ah,(%rax)
    49b9:	20 20                	and    %ah,(%rax)
    49bb:	20 20                	and    %ah,(%rax)
    49bd:	20 20                	and    %ah,(%rax)
    49bf:	20 20                	and    %ah,(%rax)
    49c1:	20 20                	and    %ah,(%rax)
    49c3:	20 20                	and    %ah,(%rax)
    49c5:	20 43 6c             	and    %al,0x6c(%rbx)
    49c8:	65 61                	gs (bad)
    49ca:	72 20                	jb     0x49ec
    49cc:	74 68                	je     0x4a36
    49ce:	65 20 73 63          	and    %dh,%gs:0x63(%rbx)
    49d2:	72 65                	jb     0x4a39
    49d4:	65 6e                	outsb  %gs:(%rsi),(%dx)
    49d6:	0a 73 68             	or     0x68(%rbx),%dh
    49d9:	75 74                	jne    0x4a4f
    49db:	64 6f                	outsl  %fs:(%rsi),(%dx)
    49dd:	77 6e                	ja     0x4a4d
    49df:	20 20                	and    %ah,(%rax)
    49e1:	20 20                	and    %ah,(%rax)
    49e3:	20 20                	and    %ah,(%rax)
    49e5:	20 20                	and    %ah,(%rax)
    49e7:	20 20                	and    %ah,(%rax)
    49e9:	20 20                	and    %ah,(%rax)
    49eb:	20 20                	and    %ah,(%rax)
    49ed:	20 53 68             	and    %dl,0x68(%rbx)
    49f0:	75 74                	jne    0x4a66
    49f2:	20 64 6f 77          	and    %ah,0x77(%rdi,%rbp,2)
    49f6:	6e                   	outsb  (%rsi),(%dx)
    49f7:	20 74 68 65          	and    %dh,0x65(%rax,%rbp,2)
    49fb:	20 73 79             	and    %dh,0x79(%rbx)
    49fe:	73 74                	jae    0x4a74
    4a00:	65 6d                	gs insl (%dx),(%rdi)
    4a02:	0a 68 65             	or     0x65(%rax),%ch
    4a05:	6c                   	insb   (%dx),(%rdi)
    4a06:	70 20                	jo     0x4a28
    4a08:	20 20                	and    %ah,(%rax)
    4a0a:	20 20                	and    %ah,(%rax)
    4a0c:	20 20                	and    %ah,(%rax)
    4a0e:	20 20                	and    %ah,(%rax)
    4a10:	20 20                	and    %ah,(%rax)
    4a12:	20 20                	and    %ah,(%rax)
    4a14:	20 20                	and    %ah,(%rax)
    4a16:	20 20                	and    %ah,(%rax)
    4a18:	20 20                	and    %ah,(%rax)
    4a1a:	53                   	push   %rbx
    4a1b:	68 6f 77 20 74       	push   $0x7420776f
    4a20:	68 69 73 20 68       	push   $0x68207369
    4a25:	65 6c                	gs insb (%dx),(%rdi)
    4a27:	70 0a                	jo     0x4a33
    4a29:	77 72                	ja     0x4a9d
    4a2b:	69 74 65 3a 20 4f 4b 	imul   $0x204b4f20,0x3a(%rbp,%riz,2),%esi
    4a32:	20 
    4a33:	28 20                	sub    %ah,(%rax)
    4a35:	62 79 74 65 73       	(bad)
    4a3a:	20 77 72             	and    %dh,0x72(%rdi)
    4a3d:	69 74 74 65 6e 20 74 	imul   $0x6f74206e,0x65(%rsp,%rsi,2),%esi
    4a44:	6f 
    4a45:	20 27                	and    %ah,(%rdi)
    4a47:	27                   	(bad)
    4a48:	29 0a                	sub    %ecx,(%rdx)
    4a4a:	77 72                	ja     0x4abe
    4a4c:	69 74 65 3a 20 65 72 	imul   $0x72726520,0x3a(%rbp,%riz,2),%esi
    4a53:	72 
    4a54:	6f                   	outsl  (%rsi),(%dx)
    4a55:	72 20                	jb     0x4a77
    4a57:	75 73                	jne    0x4acc
    4a59:	61                   	(bad)
    4a5a:	67 65 3a 20          	cmp    %gs:(%eax),%ah
    4a5e:	77 72                	ja     0x4ad2
    4a60:	69 74 65 20 3c 66 69 	imul   $0x6c69663c,0x20(%rbp,%riz,2),%esi
    4a67:	6c 
    4a68:	65 3e 20 3c 74       	gs and %bh,%gs:(%rsp,%rsi,2)
    4a6d:	65 78 74             	gs js  0x4ae4
    4a70:	2e 2e 2e 3e 0a 69 73 	cs cs cs ds or 0x73(%rcx),%ch
    4a77:	20 69 74             	and    %ch,0x74(%rcx)
    4a7a:	20 77 6f             	and    %dh,0x6f(%rdi)
    4a7d:	72 6b                	jb     0x4aea
    4a7f:	3f                   	(bad)
    4a80:	08 20                	or     %ah,(%rax)
    4a82:	08 0a                	or     %cl,(%rdx)
    4a84:	3d 3d 3d 3d 3d       	cmp    $0x3d3d3d3d,%eax
    4a89:	3d 3d 3d 3d 3d       	cmp    $0x3d3d3d3d,%eax
    4a8e:	3d 3d 3d 3d 3d       	cmp    $0x3d3d3d3d,%eax
    4a93:	3d 3d 3d 3d 3d       	cmp    $0x3d3d3d3d,%eax
    4a98:	3d 3d 3d 3d 3d       	cmp    $0x3d3d3d3d,%eax
    4a9d:	3d 3d 3d 3d 3d       	cmp    $0x3d3d3d3d,%eax
    4aa2:	3d 3d 3d 3d 3d       	cmp    $0x3d3d3d3d,%eax
    4aa7:	3d 3d 3d 3d 3d       	cmp    $0x3d3d3d3d,%eax
    4aac:	0a f0                	or     %al,%dh
    4aae:	9f                   	lahf
    4aaf:	a6                   	cmpsb  (%rdi),(%rsi)
    4ab0:	80 20 20             	andb   $0x20,(%rax)
    4ab3:	6b 65 66 20          	imul   $0x20,0x66(%rbp),%esp
    4ab7:	73 68                	jae    0x4b21
    4ab9:	65 6c                	gs insb (%dx),(%rdi)
    4abb:	6c                   	insb   (%dx),(%rdi)
    4abc:	20 20                	and    %ah,(%rax)
    4abe:	28 52 69             	sub    %dl,0x69(%rdx)
    4ac1:	6e                   	outsb  (%rsi),(%dx)
    4ac2:	67 20 33             	and    %dh,(%ebx)
    4ac5:	20 2f                	and    %ch,(%rdi)
    4ac7:	20 52 75             	and    %dl,0x75(%rdx)
    4aca:	73 74                	jae    0x4b40
    4acc:	29 20                	sub    %esp,(%rax)
    4ace:	20 f0                	and    %dh,%al
    4ad0:	9f                   	lahf
    4ad1:	a6                   	cmpsb  (%rdi),(%rsi)
    4ad2:	80 0a 3d             	orb    $0x3d,(%rdx)
    4ad5:	3d 3d 3d 3d 3d       	cmp    $0x3d3d3d3d,%eax
    4ada:	3d 3d 3d 3d 3d       	cmp    $0x3d3d3d3d,%eax
    4adf:	3d 3d 3d 3d 3d       	cmp    $0x3d3d3d3d,%eax
    4ae4:	3d 3d 3d 3d 3d       	cmp    $0x3d3d3d3d,%eax
    4ae9:	3d 3d 3d 3d 3d       	cmp    $0x3d3d3d3d,%eax
    4aee:	3d 3d 3d 3d 3d       	cmp    $0x3d3d3d3d,%eax
    4af3:	3d 3d 3d 3d 3d       	cmp    $0x3d3d3d3d,%eax
    4af8:	3d 3d 3d 3d 0a       	cmp    $0xa3d3d3d,%eax
    4afd:	54                   	push   %rsp
    4afe:	79 70                	jns    0x4b70
    4b00:	65 20 27             	and    %ah,%gs:(%rdi)
    4b03:	68 65 6c 70 27       	push   $0x27706c65
    4b08:	20 66 6f             	and    %ah,0x6f(%rsi)
    4b0b:	72 20                	jb     0x4b2d
    4b0d:	61                   	(bad)
    4b0e:	76 61                	jbe    0x4b71
    4b10:	69 6c 61 62 6c 65 20 	imul   $0x6320656c,0x62(%rcx,%riz,2),%ebp
    4b17:	63 
    4b18:	6f                   	outsl  (%rsi),(%dx)
    4b19:	6d                   	insl   (%dx),(%rdi)
    4b1a:	6d                   	insl   (%dx),(%rdi)
    4b1b:	61                   	(bad)
    4b1c:	6e                   	outsb  (%rsi),(%dx)
    4b1d:	64 73 2e             	fs jae 0x4b4e
    4b20:	0a 0a                	or     (%rdx),%cl
    4b22:	3e 20 6e da          	ds and %ch,-0x26(%rsi)
    4b26:	ff                   	(bad)
    4b27:	ff 87 da ff ff 87    	incl   -0x78000026(%rdi)
    4b2d:	da ff                	(bad)
    4b2f:	ff 87 da ff ff 87    	incl   -0x78000026(%rdi)
    4b35:	da ff                	(bad)
    4b37:	ff 87 da ff ff 87    	incl   -0x78000026(%rdi)
    4b3d:	da ff                	(bad)
    4b3f:	ff 87 da ff ff 87    	incl   -0x78000026(%rdi)
    4b45:	da ff                	(bad)
    4b47:	ff 8b db ff ff 65    	decl   0x65ffffdb(%rbx)
    4b4d:	db ff                	(bad)
    4b4f:	ff 87 da ff ff 87    	incl   -0x78000026(%rdi)
    4b55:	da ff                	(bad)
    4b57:	ff 81 db ff ff 87    	incl   -0x78000025(%rcx)
    4b5d:	da ff                	(bad)
    4b5f:	ff 87 da ff ff 87    	incl   -0x78000026(%rdi)
    4b65:	da ff                	(bad)
    4b67:	ff 87 da ff ff 87    	incl   -0x78000026(%rdi)
    4b6d:	da ff                	(bad)
    4b6f:	ff 87 da ff ff 87    	incl   -0x78000026(%rdi)
    4b75:	da ff                	(bad)
    4b77:	ff 87 da ff ff 87    	incl   -0x78000026(%rdi)
    4b7d:	da ff                	(bad)
    4b7f:	ff 87 da ff ff 87    	incl   -0x78000026(%rdi)
    4b85:	da ff                	(bad)
    4b87:	ff 87 da ff ff 87    	incl   -0x78000026(%rdi)
    4b8d:	da ff                	(bad)
    4b8f:	ff 87 da ff ff 87    	incl   -0x78000026(%rdi)
    4b95:	da ff                	(bad)
    4b97:	ff 87 da ff ff 87    	incl   -0x78000026(%rdi)
    4b9d:	da ff                	(bad)
    4b9f:	ff 87 da ff ff 87    	incl   -0x78000026(%rdi)
    4ba5:	da ff                	(bad)
    4ba7:	ff 87 da ff ff 95    	incl   -0x6a000026(%rdi)
    4bad:	db ff                	(bad)
    4baf:	ff 87 da ff ff 87    	incl   -0x78000026(%rdi)
    4bb5:	da ff                	(bad)
    4bb7:	ff 87 da ff ff 87    	incl   -0x78000026(%rdi)
    4bbd:	da ff                	(bad)
    4bbf:	ff 6f db             	ljmp   *-0x25(%rdi)
    4bc2:	ff                   	(bad)
    4bc3:	ff 2c de             	ljmp   *(%rsi,%rbx,8)
    4bc6:	ff                   	(bad)
    4bc7:	ff 95 dd ff ff 30    	call   *0x30ffffdd(%rbp)
    4bcd:	de ff                	fdivrp %st,%st(7)
    4bcf:	ff 95 dd ff ff 00    	call   *0xffffdd(%rbp)
    4bd5:	70 00                	jo     0x4bd7
    4bd7:	07                   	(bad)
    4bd8:	00 2d 01 01 01 02    	add    %ch,0x2010101(%rip)        # 0x2014cdf
    4bde:	01 02                	add    %eax,(%rdx)
    4be0:	01 01                	add    %eax,(%rcx)
    4be2:	48 0b 30             	or     (%rax),%rsi
    4be5:	15 10 01 65 07       	adc    $0x7650110,%eax
    4bea:	02 06                	add    (%rsi),%al
    4bec:	02 02                	add    (%rdx),%al
    4bee:	01 04 23             	add    %eax,(%rbx,%riz,1)
    4bf1:	01 1e                	add    %ebx,(%rsi)
    4bf3:	1b 5b 0b             	sbb    0xb(%rbx),%ebx
    4bf6:	3a 09                	cmp    (%rcx),%cl
    4bf8:	09 01                	or     %eax,(%rcx)
    4bfa:	18 04 01             	sbb    %al,(%rcx,%rax,1)
    4bfd:	09 01                	or     %eax,(%rcx)
    4bff:	03 01                	add    (%rcx),%eax
    4c01:	05 2b 03 3b 09       	add    $0x93b032b,%eax
    4c06:	2a 18                	sub    (%rax),%bl
    4c08:	01 20                	add    %esp,(%rax)
    4c0a:	37                   	(bad)
    4c0b:	01 01                	add    %eax,(%rcx)
    4c0d:	01 04 08             	add    %eax,(%rax,%rcx,1)
    4c10:	04 01                	add    $0x1,%al
    4c12:	03 07                	add    (%rdi),%eax
    4c14:	0a 02                	or     (%rdx),%al
    4c16:	1d 01 3a 01 01       	sbb    $0x1013a01,%eax
    4c1b:	01 02                	add    %eax,(%rdx)
    4c1d:	04 08                	add    $0x8,%al
    4c1f:	01 09                	add    %ecx,(%rcx)
    4c21:	01 0a                	add    %ecx,(%rdx)
    4c23:	02 1a                	add    (%rdx),%bl
    4c25:	01 02                	add    %eax,(%rdx)
    4c27:	02 39                	add    (%rcx),%bh
    4c29:	01 04 02             	add    %eax,(%rdx,%rax,1)
    4c2c:	04 02                	add    $0x2,%al
    4c2e:	02 03                	add    (%rbx),%al
    4c30:	03 01                	add    (%rcx),%eax
    4c32:	1e                   	(bad)
    4c33:	02 03                	add    (%rbx),%al
    4c35:	01 0b                	add    %ecx,(%rbx)
    4c37:	02 39                	add    (%rcx),%bh
    4c39:	01 04 05 01 02 04 01 	add    %eax,0x1040201(,%rax,1)
    4c40:	14 02                	adc    $0x2,%al
    4c42:	16                   	(bad)
    4c43:	06                   	(bad)
    4c44:	01 01                	add    %eax,(%rcx)
    4c46:	3a 01                	cmp    (%rcx),%al
    4c48:	01 02                	add    %eax,(%rdx)
    4c4a:	01 04 08             	add    %eax,(%rax,%rcx,1)
    4c4d:	01 07                	add    %eax,(%rdi)
    4c4f:	03 0a                	add    (%rdx),%ecx
    4c51:	02 1e                	add    (%rsi),%bl
    4c53:	01 3b                	add    %edi,(%rbx)
    4c55:	01 01                	add    %eax,(%rcx)
    4c57:	01 0c 01             	add    %ecx,(%rcx,%rax,1)
    4c5a:	09 01                	or     %eax,(%rcx)
    4c5c:	28 01                	sub    %al,(%rcx)
    4c5e:	03 01                	add    (%rcx),%eax
    4c60:	37                   	(bad)
    4c61:	01 01                	add    %eax,(%rcx)
    4c63:	03 05 03 01 04 07    	add    0x7040103(%rip),%eax        # 0x7044d6c
    4c69:	02 0b                	add    (%rbx),%cl
    4c6b:	02 1d 01 3a 01 02    	add    0x2013a01(%rip),%bl        # 0x2018672
    4c71:	02 01                	add    (%rcx),%al
    4c73:	01 03                	add    %eax,(%rbx)
    4c75:	03 01                	add    (%rcx),%eax
    4c77:	04 07                	add    $0x7,%al
    4c79:	02 0b                	add    (%rbx),%cl
    4c7b:	02 1c 02             	add    (%rdx,%rax,1),%bl
    4c7e:	39 02                	cmp    %eax,(%rdx)
    4c80:	01 01                	add    %eax,(%rcx)
    4c82:	02 04 08             	add    (%rax,%rcx,1),%al
    4c85:	01 09                	add    %ecx,(%rcx)
    4c87:	01 0a                	add    %ecx,(%rdx)
    4c89:	02 1d 01 48 01 04    	add    0x4014801(%rip),%bl        # 0x4019490
    4c8f:	01 02                	add    %eax,(%rdx)
    4c91:	03 01                	add    (%rcx),%eax
    4c93:	01 08                	add    %ecx,(%rax)
    4c95:	01 51 01             	add    %edx,0x1(%rcx)
    4c98:	02 07                	add    (%rdi),%al
    4c9a:	0c 08                	or     $0x8,%al
    4c9c:	62 01 02 09 0b       	(bad)
    4ca1:	07                   	(bad)
    4ca2:	49 02 1b             	rex.WB add (%r11),%bl
    4ca5:	01 01                	add    %eax,(%rcx)
    4ca7:	01 01                	add    %eax,(%rcx)
    4ca9:	01 37                	add    %esi,(%rdi)
    4cab:	0e                   	(bad)
    4cac:	01 05 01 02 05 0b    	add    %eax,0xb050201(%rip)        # 0xb054eb3
    4cb2:	01 24 09             	add    %esp,(%rcx,%rcx,1)
    4cb5:	01 66 04             	add    %esp,0x4(%rsi)
    4cb8:	01 06                	add    %eax,(%rsi)
    4cba:	01 02                	add    %eax,(%rdx)
    4cbc:	02 02                	add    (%rdx),%al
    4cbe:	19 02                	sbb    %eax,(%rdx)
    4cc0:	04 03                	add    $0x3,%al
    4cc2:	10 04 0d 01 02 02 06 	adc    %al,0x6020201(,%rcx,1)
    4cc9:	01 0f                	add    %ecx,(%rdi)
    4ccb:	01 00                	add    %eax,(%rax)
    4ccd:	03 00                	add    (%rax),%eax
    4ccf:	04 1c                	add    $0x1c,%al
    4cd1:	03 1d 02 1e 02 40    	add    0x40021e02(%rip),%ebx        # 0x40026ad9
    4cd7:	02 01                	add    (%rcx),%al
    4cd9:	07                   	(bad)
    4cda:	08 01                	or     %al,(%rcx)
    4cdc:	02 0b                	add    (%rbx),%cl
    4cde:	09 01                	or     %eax,(%rcx)
    4ce0:	2d 03 01 01 75       	sub    $0x75010103,%eax
    4ce5:	02 22                	add    (%rdx),%ah
    4ce7:	01 76 03             	add    %esi,0x3(%rsi)
    4cea:	04 02                	add    $0x2,%al
    4cec:	09 01                	or     %eax,(%rcx)
    4cee:	06                   	(bad)
    4cef:	03 db                	add    %ebx,%ebx
    4cf1:	02 02                	add    (%rdx),%al
    4cf3:	01 3a                	add    %edi,(%rdx)
    4cf5:	01 01                	add    %eax,(%rcx)
    4cf7:	07                   	(bad)
    4cf8:	01 01                	add    %eax,(%rcx)
    4cfa:	01 01                	add    %eax,(%rcx)
    4cfc:	02 08                	add    (%rax),%cl
    4cfe:	06                   	(bad)
    4cff:	0a 02                	or     (%rdx),%al
    4d01:	01 30                	add    %esi,(%rax)
    4d03:	2e 02 0c 14          	cs add (%rsp,%rdx,1),%cl
    4d07:	04 30                	add    $0x30,%al
    4d09:	0a 04 03             	or     (%rbx,%rax,1),%al
    4d0c:	26 09 0c 02          	es or  %ecx,(%rdx,%rax,1)
    4d10:	20 04 02             	and    %al,(%rdx,%rax,1)
    4d13:	06                   	(bad)
    4d14:	38 01                	cmp    %al,(%rcx)
    4d16:	01 02                	add    %eax,(%rdx)
    4d18:	03 01                	add    (%rcx),%eax
    4d1a:	01 05 38 08 02 02    	add    %eax,0x2020838(%rip)        # 0x2025558
    4d20:	98                   	cwtl
    4d21:	03 01                	add    (%rcx),%eax
    4d23:	0d 01 07 04 01       	or     $0x1040701,%eax
    4d28:	06                   	(bad)
    4d29:	01 03                	add    %eax,(%rbx)
    4d2b:	02 c6                	add    %dh,%al
    4d2d:	40 00 01             	rex add %al,(%rcx)
    4d30:	c3                   	ret
    4d31:	21 00                	and    %eax,(%rax)
    4d33:	03 8d 01 60 20 00    	add    0x206001(%rbp),%ecx
    4d39:	06                   	(bad)
    4d3a:	69 02 00 04 01 0a    	imul   $0xa010400,(%rdx),%eax
    4d40:	20 02                	and    %al,(%rdx)
    4d42:	50                   	push   %rax
    4d43:	02 00                	add    (%rax),%al
    4d45:	01 03                	add    %eax,(%rbx)
    4d47:	01 04 01             	add    %eax,(%rcx,%rax,1)
    4d4a:	19 02                	sbb    %eax,(%rdx)
    4d4c:	05 01 97 02 1a       	add    $0x1a029701,%eax
    4d51:	12 0d 01 26 08 19    	adc    0x19082601(%rip),%cl        # 0x19087358
    4d57:	0b 01                	or     (%rcx),%eax
    4d59:	01 2c 03             	add    %ebp,(%rbx,%rax,1)
    4d5c:	30 01                	xor    %al,(%rcx)
    4d5e:	02 04 02             	add    (%rdx,%rax,1),%al
    4d61:	02 02                	add    (%rdx),%al
    4d63:	01 24 01             	add    %esp,(%rcx,%rax,1)
    4d66:	43 06                	rex.XB (bad)
    4d68:	02 02                	add    (%rdx),%al
    4d6a:	02 02                	add    (%rdx),%al
    4d6c:	0c 01                	or     $0x1,%al
    4d6e:	08 01                	or     %al,(%rcx)
    4d70:	2f                   	(bad)
    4d71:	01 33                	add    %esi,(%rbx)
    4d73:	01 01                	add    %eax,(%rcx)
    4d75:	03 02                	add    (%rdx),%eax
    4d77:	02 05 02 01 01 2a    	add    0x2a010102(%rip),%al        # 0x2a014e7f
    4d7d:	02 08                	add    (%rax),%cl
    4d7f:	01 ee                	add    %ebp,%esi
    4d81:	01 02                	add    %eax,(%rdx)
    4d83:	01 04 01             	add    %eax,(%rcx,%rax,1)
    4d86:	00 01                	add    %al,(%rcx)
    4d88:	00 10                	add    %dl,(%rax)
    4d8a:	10 10                	adc    %dl,(%rax)
    4d8c:	00 02                	add    %al,(%rdx)
    4d8e:	00 01                	add    %al,(%rcx)
    4d90:	e2 01                	loop   0x4d93
    4d92:	95                   	xchg   %eax,%ebp
    4d93:	05 00 03 01 02       	add    $0x2010300,%eax
    4d98:	05 04 28 03 04       	add    $0x4032804,%eax
    4d9d:	01 a5 02 00 04 41    	add    %esp,0x41040002(%rbp)
    4da3:	05 00 02 4d 06       	add    $0x64d0200,%eax
    4da8:	46 0b 31             	rex.RX or (%rcx),%r14d
    4dab:	04 7b                	add    $0x7b,%al
    4dad:	01 36                	add    %esi,(%rsi)
    4daf:	0f 29 01             	movaps %xmm0,(%rcx)
    4db2:	02 02                	add    (%rdx),%al
    4db4:	0a 03                	or     (%rbx),%al
    4db6:	31 04 02             	xor    %eax,(%rdx,%rax,1)
    4db9:	02 07                	add    (%rdi),%al
    4dbb:	01 3d 03 24 05 01    	add    %edi,0x1052403(%rip)        # 0x10571c4
    4dc1:	08 3e                	or     %bh,(%rsi)
    4dc3:	01 0c 02             	add    %ecx,(%rdx,%rax,1)
    4dc6:	34 09                	xor    $0x9,%al
    4dc8:	01 01                	add    %eax,(%rcx)
    4dca:	08 04 02             	or     %al,(%rdx,%rax,1)
    4dcd:	01 5f 03             	add    %ebx,0x3(%rdi)
    4dd0:	02 04 06             	add    (%rsi,%rax,1),%al
    4dd3:	01 02                	add    %eax,(%rdx)
    4dd5:	01 9d 01 03 08 15    	add    %ebx,0x15080301(%rbp)
    4ddb:	02 39                	add    (%rcx),%bh
    4ddd:	02 01                	add    (%rcx),%al
    4ddf:	01 01                	add    %eax,(%rcx)
    4de1:	01 0c 01             	add    %ecx,(%rcx,%rax,1)
    4de4:	09 01                	or     %eax,(%rcx)
    4de6:	0e                   	(bad)
    4de7:	07                   	(bad)
    4de8:	03 05 43 01 02 06    	add    0x6020143(%rip),%eax        # 0x6024f31
    4dee:	01 01                	add    %eax,(%rcx)
    4df0:	02 01                	add    (%rcx),%al
    4df2:	01 03                	add    %eax,(%rbx)
    4df4:	04 03                	add    $0x3,%al
    4df6:	01 01                	add    %eax,(%rcx)
    4df8:	0e                   	(bad)
    4df9:	02 55 08             	add    0x8(%rbp),%dl
    4dfc:	02 03                	add    (%rbx),%al
    4dfe:	01 01                	add    %eax,(%rcx)
    4e00:	17                   	(bad)
    4e01:	01 51 01             	add    %edx,0x1(%rcx)
    4e04:	02 06                	add    (%rsi),%al
    4e06:	01 01                	add    %eax,(%rcx)
    4e08:	02 01                	add    (%rcx),%al
    4e0a:	01 02                	add    %eax,(%rdx)
    4e0c:	01 02                	add    %eax,(%rdx)
    4e0e:	eb 01                	jmp    0x4e11
    4e10:	02 04 06             	add    (%rsi,%rax,1),%al
    4e13:	02 01                	add    (%rcx),%al
    4e15:	02 1b                	add    (%rbx),%bl
    4e17:	02 55 08             	add    0x8(%rbp),%dl
    4e1a:	02 01                	add    (%rcx),%al
    4e1c:	01 02                	add    %eax,(%rdx)
    4e1e:	6a 01                	push   $0x1
    4e20:	01 01                	add    %eax,(%rcx)
    4e22:	02 08                	add    (%rax),%cl
    4e24:	65 01 01             	add    %eax,%gs:(%rcx)
    4e27:	01 02                	add    %eax,(%rdx)
    4e29:	04 01                	add    $0x1,%al
    4e2b:	05 00 09 01 02       	add    $0x2010900,%eax
    4e30:	f5                   	cmc
    4e31:	01 0a                	add    %ecx,(%rdx)
    4e33:	04 04                	add    $0x4,%al
    4e35:	01 90 04 02 02 04    	add    %edx,0x4020204(%rax)
    4e3b:	01 20                	add    %esp,(%rax)
    4e3d:	0a 28                	or     (%rax),%ch
    4e3f:	06                   	(bad)
    4e40:	02 04 08             	add    (%rax,%rcx,1),%al
    4e43:	01 09                	add    %ecx,(%rcx)
    4e45:	06                   	(bad)
    4e46:	02 03                	add    (%rbx),%al
    4e48:	2e 0d 01 02 c6 01    	cs or  $0x1c60201,%eax
    4e4e:	01 03                	add    %eax,(%rbx)
    4e50:	01 01                	add    %eax,(%rcx)
    4e52:	c9                   	leave
    4e53:	07                   	(bad)
    4e54:	01 06                	add    %eax,(%rsi)
    4e56:	01 01                	add    %eax,(%rcx)
    4e58:	52                   	push   %rdx
    4e59:	16                   	(bad)
    4e5a:	02 07                	add    (%rdi),%al
    4e5c:	01 02                	add    %eax,(%rdx)
    4e5e:	01 02                	add    %eax,(%rdx)
    4e60:	7a 06                	jp     0x4e68
    4e62:	03 01                	add    (%rcx),%eax
    4e64:	01 02                	add    %eax,(%rdx)
    4e66:	01 07                	add    %eax,(%rdi)
    4e68:	01 01                	add    %eax,(%rcx)
    4e6a:	48 02 03             	rex.W add (%rbx),%al
    4e6d:	01 01                	add    %eax,(%rcx)
    4e6f:	01 00                	add    %eax,(%rax)
    4e71:	02 0b                	add    (%rbx),%cl
    4e73:	02 34 05 05 03 17 01 	add    0x1170305(,%rax,1),%dh
    4e7a:	00 01                	add    %al,(%rcx)
    4e7c:	06                   	(bad)
    4e7d:	0f 00 0c 03          	str    (%rbx,%rax,1)
    4e81:	03 00                	add    (%rax),%eax
    4e83:	05 3b 07 00 01       	add    $0x100073b,%eax
    4e88:	3f                   	(bad)
    4e89:	04 51                	add    $0x51,%al
    4e8b:	01 0b                	add    %ecx,(%rbx)
    4e8d:	02 00                	add    (%rax),%al
    4e8f:	02 00                	add    (%rax),%al
    4e91:	2e 02 17             	cs add (%rdi),%dl
    4e94:	00 05 03 06 08 08    	add    %al,0x8080603(%rip)        # 0x808549d
    4e9a:	02 07                	add    (%rdi),%al
    4e9c:	1e                   	(bad)
    4e9d:	04 94                	add    $0x94,%al
    4e9f:	03 00                	add    (%rax),%eax
    4ea1:	37                   	(bad)
    4ea2:	04 32                	add    $0x32,%al
    4ea4:	08 01                	or     %al,(%rcx)
    4ea6:	0e                   	(bad)
    4ea7:	01 16                	add    %edx,(%rsi)
    4ea9:	05 01 0f 00 07       	add    $0x7000f01,%eax
    4eae:	01 11                	add    %edx,(%rcx)
    4eb0:	02 07                	add    (%rdi),%al
    4eb2:	01 02                	add    %eax,(%rdx)
    4eb4:	01 05 64 01 a0 07    	add    %eax,0x7a00164(%rip)        # 0x7a0501e
    4eba:	00 01                	add    %al,(%rcx)
    4ebc:	3d 04 00 04 fe       	cmp    $0xfe040004,%eax
    4ec1:	02 f3                	add    %bl,%dh
    4ec3:	01 02                	add    %eax,(%rdx)
    4ec5:	01 07                	add    %eax,(%rdi)
    4ec7:	02 05 01 00 07 6d    	add    0x6d070001(%rip),%al        # 0x6d074ece
    4ecd:	07                   	(bad)
    4ece:	00 60 80             	add    %ah,-0x80(%rax)
    4ed1:	f0 00 00             	lock add %al,(%rax)
    4ed4:	30 31                	xor    %dh,(%rcx)
    4ed6:	32 33                	xor    (%rbx),%dh
    4ed8:	34 35                	xor    $0x35,%al
    4eda:	36 37                	ss (bad)
    4edc:	38 39                	cmp    %bh,(%rcx)
    4ede:	41                   	rex.B
    4edf:	42                   	rex.X
    4ee0:	43                   	rex.XB
    4ee1:	44                   	rex.R
    4ee2:	45                   	rex.RB
    4ee3:	46 30 31             	rex.RX xor %r14b,(%rcx)
    4ee6:	32 33                	xor    (%rbx),%dh
    4ee8:	34 35                	xor    $0x35,%al
    4eea:	36 37                	ss (bad)
    4eec:	38 39                	cmp    %bh,(%rcx)
    4eee:	61                   	(bad)
    4eef:	62 63 64 65 66       	(bad)
    4ef4:	63 61 6c             	movsxd 0x6c(%rcx),%esp
    4ef7:	6c                   	insb   (%dx),(%rdi)
    4ef8:	65 64 20 60 4f       	gs and %ah,%fs:0x4f(%rax)
    4efd:	70 74                	jo     0x4f73
    4eff:	69 6f 6e 3a 3a 75 6e 	imul   $0x6e753a3a,0x6e(%rdi),%ebp
    4f06:	77 72                	ja     0x4f7a
    4f08:	61                   	(bad)
    4f09:	70 28                	jo     0x4f33
    4f0b:	29 60 20             	sub    %esp,0x20(%rax)
    4f0e:	6f                   	outsl  (%rsi),(%dx)
    4f0f:	6e                   	outsb  (%rsi),(%dx)
    4f10:	20 61 20             	and    %ah,0x20(%rcx)
    4f13:	60                   	(bad)
    4f14:	4e 6f                	rex.WRX outsl (%rsi),(%dx)
    4f16:	6e                   	outsb  (%rsi),(%dx)
    4f17:	65 60                	gs (bad)
    4f19:	20 76 61             	and    %dh,0x61(%rsi)
    4f1c:	6c                   	insb   (%dx),(%rdi)
    4f1d:	75 65                	jne    0x4f84
    4f1f:	30 30                	xor    %dh,(%rax)
    4f21:	30 31                	xor    %dh,(%rcx)
    4f23:	30 32                	xor    %dh,(%rdx)
    4f25:	30 33                	xor    %dh,(%rbx)
    4f27:	30 34 30             	xor    %dh,(%rax,%rsi,1)
    4f2a:	35 30 36 30 37       	xor    $0x37303630,%eax
    4f2f:	30 38                	xor    %bh,(%rax)
    4f31:	30 39                	xor    %bh,(%rcx)
    4f33:	31 30                	xor    %esi,(%rax)
    4f35:	31 31                	xor    %esi,(%rcx)
    4f37:	31 32                	xor    %esi,(%rdx)
    4f39:	31 33                	xor    %esi,(%rbx)
    4f3b:	31 34 31             	xor    %esi,(%rcx,%rsi,1)
    4f3e:	35 31 36 31 37       	xor    $0x37313631,%eax
    4f43:	31 38                	xor    %edi,(%rax)
    4f45:	31 39                	xor    %edi,(%rcx)
    4f47:	32 30                	xor    (%rax),%dh
    4f49:	32 31                	xor    (%rcx),%dh
    4f4b:	32 32                	xor    (%rdx),%dh
    4f4d:	32 33                	xor    (%rbx),%dh
    4f4f:	32 34 32             	xor    (%rdx,%rsi,1),%dh
    4f52:	35 32 36 32 37       	xor    $0x37323632,%eax
    4f57:	32 38                	xor    (%rax),%bh
    4f59:	32 39                	xor    (%rcx),%bh
    4f5b:	33 30                	xor    (%rax),%esi
    4f5d:	33 31                	xor    (%rcx),%esi
    4f5f:	33 32                	xor    (%rdx),%esi
    4f61:	33 33                	xor    (%rbx),%esi
    4f63:	33 34 33             	xor    (%rbx,%rsi,1),%esi
    4f66:	35 33 36 33 37       	xor    $0x37333633,%eax
    4f6b:	33 38                	xor    (%rax),%edi
    4f6d:	33 39                	xor    (%rcx),%edi
    4f6f:	34 30                	xor    $0x30,%al
    4f71:	34 31                	xor    $0x31,%al
    4f73:	34 32                	xor    $0x32,%al
    4f75:	34 33                	xor    $0x33,%al
    4f77:	34 34                	xor    $0x34,%al
    4f79:	34 35                	xor    $0x35,%al
    4f7b:	34 36                	xor    $0x36,%al
    4f7d:	34 37                	xor    $0x37,%al
    4f7f:	34 38                	xor    $0x38,%al
    4f81:	34 39                	xor    $0x39,%al
    4f83:	35 30 35 31 35       	xor    $0x35313530,%eax
    4f88:	32 35 33 35 34 35    	xor    0x35343533(%rip),%dh        # 0x353484c1
    4f8e:	35 35 36 35 37       	xor    $0x37353635,%eax
    4f93:	35 38 35 39 36       	xor    $0x36393538,%eax
    4f98:	30 36                	xor    %dh,(%rsi)
    4f9a:	31 36                	xor    %esi,(%rsi)
    4f9c:	32 36                	xor    (%rsi),%dh
    4f9e:	33 36                	xor    (%rsi),%esi
    4fa0:	34 36                	xor    $0x36,%al
    4fa2:	35 36 36 36 37       	xor    $0x37363636,%eax
    4fa7:	36 38 36             	ss cmp %dh,(%rsi)
    4faa:	39 37                	cmp    %esi,(%rdi)
    4fac:	30 37                	xor    %dh,(%rdi)
    4fae:	31 37                	xor    %esi,(%rdi)
    4fb0:	32 37                	xor    (%rdi),%dh
    4fb2:	33 37                	xor    (%rdi),%esi
    4fb4:	34 37                	xor    $0x37,%al
    4fb6:	35 37 36 37 37       	xor    $0x37373637,%eax
    4fbb:	37                   	(bad)
    4fbc:	38 37                	cmp    %dh,(%rdi)
    4fbe:	39 38                	cmp    %edi,(%rax)
    4fc0:	30 38                	xor    %bh,(%rax)
    4fc2:	31 38                	xor    %edi,(%rax)
    4fc4:	32 38                	xor    (%rax),%bh
    4fc6:	33 38                	xor    (%rax),%edi
    4fc8:	34 38                	xor    $0x38,%al
    4fca:	35 38 36 38 37       	xor    $0x37383638,%eax
    4fcf:	38 38                	cmp    %bh,(%rax)
    4fd1:	38 39                	cmp    %bh,(%rcx)
    4fd3:	39 30                	cmp    %esi,(%rax)
    4fd5:	39 31                	cmp    %esi,(%rcx)
    4fd7:	39 32                	cmp    %esi,(%rdx)
    4fd9:	39 33                	cmp    %esi,(%rbx)
    4fdb:	39 34 39             	cmp    %esi,(%rcx,%rdi,1)
    4fde:	35 39 36 39 37       	xor    $0x37393639,%eax
    4fe3:	39 38                	cmp    %edi,(%rax)
    4fe5:	39 39                	cmp    %edi,(%rcx)
    4fe7:	01 01                	add    %eax,(%rcx)
    4fe9:	01 01                	add    %eax,(%rcx)
    4feb:	01 01                	add    %eax,(%rcx)
    4fed:	01 01                	add    %eax,(%rcx)
    4fef:	01 01                	add    %eax,(%rcx)
    4ff1:	01 01                	add    %eax,(%rcx)
    4ff3:	01 01                	add    %eax,(%rcx)
    4ff5:	01 01                	add    %eax,(%rcx)
    4ff7:	01 01                	add    %eax,(%rcx)
    4ff9:	01 01                	add    %eax,(%rcx)
    4ffb:	01 01                	add    %eax,(%rcx)
    4ffd:	01 01                	add    %eax,(%rcx)
    4fff:	01 01                	add    %eax,(%rcx)
    5001:	01 01                	add    %eax,(%rcx)
    5003:	01 01                	add    %eax,(%rcx)
    5005:	01 01                	add    %eax,(%rcx)
    5007:	01 01                	add    %eax,(%rcx)
    5009:	01 01                	add    %eax,(%rcx)
    500b:	01 01                	add    %eax,(%rcx)
    500d:	01 01                	add    %eax,(%rcx)
    500f:	01 01                	add    %eax,(%rcx)
    5011:	01 01                	add    %eax,(%rcx)
    5013:	01 01                	add    %eax,(%rcx)
    5015:	01 01                	add    %eax,(%rcx)
    5017:	01 01                	add    %eax,(%rcx)
    5019:	01 01                	add    %eax,(%rcx)
    501b:	01 01                	add    %eax,(%rcx)
    501d:	01 01                	add    %eax,(%rcx)
    501f:	01 01                	add    %eax,(%rcx)
    5021:	01 01                	add    %eax,(%rcx)
    5023:	01 01                	add    %eax,(%rcx)
    5025:	01 01                	add    %eax,(%rcx)
    5027:	01 01                	add    %eax,(%rcx)
    5029:	01 01                	add    %eax,(%rcx)
    502b:	01 01                	add    %eax,(%rcx)
    502d:	01 01                	add    %eax,(%rcx)
    502f:	01 01                	add    %eax,(%rcx)
    5031:	01 01                	add    %eax,(%rcx)
    5033:	01 01                	add    %eax,(%rcx)
    5035:	01 01                	add    %eax,(%rcx)
    5037:	01 01                	add    %eax,(%rcx)
    5039:	01 01                	add    %eax,(%rcx)
    503b:	01 01                	add    %eax,(%rcx)
    503d:	01 01                	add    %eax,(%rcx)
    503f:	01 01                	add    %eax,(%rcx)
    5041:	01 01                	add    %eax,(%rcx)
    5043:	01 01                	add    %eax,(%rcx)
    5045:	01 01                	add    %eax,(%rcx)
    5047:	01 01                	add    %eax,(%rcx)
    5049:	01 01                	add    %eax,(%rcx)
    504b:	01 01                	add    %eax,(%rcx)
    504d:	01 01                	add    %eax,(%rcx)
    504f:	01 01                	add    %eax,(%rcx)
    5051:	01 01                	add    %eax,(%rcx)
    5053:	01 01                	add    %eax,(%rcx)
    5055:	01 01                	add    %eax,(%rcx)
    5057:	01 01                	add    %eax,(%rcx)
    5059:	01 01                	add    %eax,(%rcx)
    505b:	01 01                	add    %eax,(%rcx)
    505d:	01 01                	add    %eax,(%rcx)
    505f:	01 01                	add    %eax,(%rcx)
    5061:	01 01                	add    %eax,(%rcx)
    5063:	01 01                	add    %eax,(%rcx)
    5065:	01 01                	add    %eax,(%rcx)
	...
    50a7:	00 00                	add    %al,(%rax)
    50a9:	02 02                	add    (%rdx),%al
    50ab:	02 02                	add    (%rdx),%al
    50ad:	02 02                	add    (%rdx),%al
    50af:	02 02                	add    (%rdx),%al
    50b1:	02 02                	add    (%rdx),%al
    50b3:	02 02                	add    (%rdx),%al
    50b5:	02 02                	add    (%rdx),%al
    50b7:	02 02                	add    (%rdx),%al
    50b9:	02 02                	add    (%rdx),%al
    50bb:	02 02                	add    (%rdx),%al
    50bd:	02 02                	add    (%rdx),%al
    50bf:	02 02                	add    (%rdx),%al
    50c1:	02 02                	add    (%rdx),%al
    50c3:	02 02                	add    (%rdx),%al
    50c5:	02 02                	add    (%rdx),%al
    50c7:	03 03                	add    (%rbx),%eax
    50c9:	03 03                	add    (%rbx),%eax
    50cb:	03 03                	add    (%rbx),%eax
    50cd:	03 03                	add    (%rbx),%eax
    50cf:	03 03                	add    (%rbx),%eax
    50d1:	03 03                	add    (%rbx),%eax
    50d3:	03 03                	add    (%rbx),%eax
    50d5:	03 03                	add    (%rbx),%eax
    50d7:	04 04                	add    $0x4,%al
    50d9:	04 04                	add    $0x4,%al
    50db:	04 00                	add    $0x0,%al
	...
    50e5:	00 00                	add    %al,(%rax)
    50e7:	00 06                	add    %al,(%rsi)
    50e9:	01 01                	add    %eax,(%rcx)
    50eb:	03 01                	add    (%rcx),%eax
    50ed:	04 02                	add    $0x2,%al
    50ef:	05 07 07 02 08       	add    $0x8020707,%eax
    50f4:	08 09                	or     %cl,(%rcx)
    50f6:	02 0a                	add    (%rdx),%cl
    50f8:	05 0b 02 0e 04       	add    $0x40e020b,%eax
    50fd:	10 01                	adc    %al,(%rcx)
    50ff:	11 02                	adc    %eax,(%rdx)
    5101:	12 05 13 1c 14 01    	adc    0x1141c13(%rip),%al        # 0x1146d1a
    5107:	15 02 17 02 19       	adc    $0x19021702,%eax
    510c:	0d 1c 05 1d 08       	or     $0x81d051c,%eax
    5111:	1f                   	(bad)
    5112:	01 24 01             	add    %esp,(%rcx,%rax,1)
    5115:	6a 04                	push   $0x4
    5117:	6b 02 6e             	imul   $0x6e,(%rdx),%eax
    511a:	02 af 03 b1 02 bc    	add    -0x43fd4efd(%rdi),%ch
    5120:	02 cf                	add    %bh,%cl
    5122:	02 d1                	add    %cl,%dl
    5124:	02 d4                	add    %ah,%dl
    5126:	0c d5                	or     $0xd5,%al
    5128:	09 d6                	or     %edx,%esi
    512a:	02 d7                	add    %bh,%dl
    512c:	02 da                	add    %dl,%bl
    512e:	01 e0                	add    %esp,%eax
    5130:	05 e1 02 e6 01       	add    $0x1e602e1,%eax
    5135:	e7 04                	out    %eax,$0x4
    5137:	e8 02 ee 20 f0       	call   0xf0213f3e
    513c:	04 f8                	add    $0xf8,%al
    513e:	02 fa                	add    %dl,%bh
    5140:	05 fb 01 0c 27       	add    $0x270c01fb,%eax
    5145:	3b 3e                	cmp    (%rsi),%edi
    5147:	4e                   	rex.WRX
    5148:	4f 8f                	rex.WRXB (bad)
    514a:	9e                   	sahf
    514b:	9e                   	sahf
    514c:	9f                   	lahf
    514d:	7b 8b                	jnp    0x50da
    514f:	93                   	xchg   %eax,%ebx
    5150:	96                   	xchg   %eax,%esi
    5151:	a2 b2 ba 86 b1 06 07 	movabs %al,0x36090706b186bab2
    5158:	09 36 
    515a:	3d 3e 56 f3 d0       	cmp    $0xd0f3563e,%eax
    515f:	d1 04 14             	roll   $1,(%rsp,%rdx,1)
    5162:	18 36                	sbb    %dh,(%rsi)
    5164:	37                   	(bad)
    5165:	56                   	push   %rsi
    5166:	57                   	push   %rdi
    5167:	7f aa                	jg     0x5113
    5169:	ae                   	scas   (%rdi),%al
    516a:	af                   	scas   (%rdi),%eax
    516b:	bd 35 e0 12 87       	mov    $0x8712e035,%ebp
    5170:	89 8e 9e 04 0d 0e    	mov    %ecx,0xe0d049e(%rsi)
    5176:	11 12                	adc    %edx,(%rdx)
    5178:	29 31                	sub    %esi,(%rcx)
    517a:	34 3a                	xor    $0x3a,%al
    517c:	45                   	rex.RB
    517d:	46                   	rex.RX
    517e:	49                   	rex.WB
    517f:	4a                   	rex.WX
    5180:	4e                   	rex.WRX
    5181:	4f                   	rex.WRXB
    5182:	64 65 8a 8c 8d 8f b6 	fs mov %gs:-0x3c3e4971(%rbp,%rcx,4),%cl
    5189:	c1 c3 
    518b:	c4                   	(bad)
    518c:	c6                   	(bad)
    518d:	cb                   	lret
    518e:	d6                   	udb
    518f:	5c                   	pop    %rsp
    5190:	b6 b7                	mov    $0xb7,%dh
    5192:	1b 1c 07             	sbb    (%rdi,%rax,1),%ebx
    5195:	08 0a                	or     %cl,(%rdx)
    5197:	0b 14 17             	or     (%rdi,%rdx,1),%edx
    519a:	36 39 3a             	ss cmp %edi,(%rdx)
    519d:	a8 a9                	test   $0xa9,%al
    519f:	d8 d9                	fcomp  %st(1)
    51a1:	09 37                	or     %esi,(%rdi)
    51a3:	90                   	nop
    51a4:	91                   	xchg   %eax,%ecx
    51a5:	a8 07                	test   $0x7,%al
    51a7:	0a 3b                	or     (%rbx),%bh
    51a9:	3e 66 69 8f 92 11 6f 	ds imul $0xeebf,0x5f6f1192(%rdi),%cx
    51b0:	5f bf ee 
    51b3:	ef                   	out    %eax,(%dx)
    51b4:	5a                   	pop    %rdx
    51b5:	62 b9 ba f4 fc       	(bad)
    51ba:	ff 53 54             	call   *0x54(%rbx)
    51bd:	9a                   	(bad)
    51be:	9b                   	fwait
    51bf:	2e 2f                	cs (bad)
    51c1:	27                   	(bad)
    51c2:	28 55 9d             	sub    %dl,-0x63(%rbp)
    51c5:	a0 a1 a3 a4 a7 a8 ad 	movabs 0xbcbaada8a7a4a3a1,%al
    51cc:	ba bc 
    51ce:	c4                   	(bad)
    51cf:	06                   	(bad)
    51d0:	0b 0c 15 1d 3a 3f 45 	or     0x453f3a1d(,%rdx,1),%ecx
    51d7:	51                   	push   %rcx
    51d8:	a6                   	cmpsb  (%rdi),(%rsi)
    51d9:	a7                   	cmpsl  (%rdi),(%rsi)
    51da:	cc                   	int3
    51db:	cd a0                	int    $0xa0
    51dd:	07                   	(bad)
    51de:	19 1a                	sbb    %ebx,(%rdx)
    51e0:	22 25 3e 3f df e7    	and    -0x1820c0c2(%rip),%ah        # 0xe7df9124
    51e6:	ec                   	in     (%dx),%al
    51e7:	ef                   	out    %eax,(%dx)
    51e8:	ff c5                	inc    %ebp
    51ea:	c6 04 20 23          	movb   $0x23,(%rax,%riz,1)
    51ee:	25 26 28 33 38       	and    $0x38332826,%eax
    51f3:	3a 48 4a             	cmp    0x4a(%rax),%cl
    51f6:	4c 50                	rex.WR push %rax
    51f8:	53                   	push   %rbx
    51f9:	55                   	push   %rbp
    51fa:	56                   	push   %rsi
    51fb:	58                   	pop    %rax
    51fc:	5a                   	pop    %rdx
    51fd:	5c                   	pop    %rsp
    51fe:	5e                   	pop    %rsi
    51ff:	60                   	(bad)
    5200:	63 65 66             	movsxd 0x66(%rbp),%esp
    5203:	6b 73 78 7d          	imul   $0x7d,0x78(%rbx),%esi
    5207:	7f 8a                	jg     0x5193
    5209:	a4                   	movsb  (%rsi),(%rdi)
    520a:	aa                   	stos   %al,(%rdi)
    520b:	af                   	scas   (%rdi),%eax
    520c:	b0 c0                	mov    $0xc0,%al
    520e:	d0 ae af 6e 6f c7    	shrb   $1,-0x38909151(%rsi)
    5214:	dd de                	fstp   %st(6)
    5216:	93                   	xchg   %eax,%ebx
    5217:	5e                   	pop    %rsi
    5218:	22 7b 05             	and    0x5(%rbx),%bh
    521b:	03 04 2d 03 66 03 01 	add    0x1036603(,%rbp,1),%eax
    5222:	2f                   	(bad)
    5223:	2e 80 82 1d 03 31 0f 	cs addb $0x1c,0xf31031d(%rdx)
    522a:	1c 
    522b:	04 24                	add    $0x24,%al
    522d:	09 1e                	or     %ebx,(%rsi)
    522f:	05 2b 05 44 04       	add    $0x444052b,%eax
    5234:	0e                   	(bad)
    5235:	2a 80 aa 06 24 04    	sub    0x42406aa(%rax),%al
    523b:	24 04                	and    $0x4,%al
    523d:	28 08                	sub    %cl,(%rax)
    523f:	34 0b                	xor    $0xb,%al
    5241:	4e 03 34 0c          	add    (%rsp,%r9,1),%r14
    5245:	81 37 09 16 0a 08    	xorl   $0x80a1609,(%rdi)
    524b:	18 3b                	sbb    %bh,(%rbx)
    524d:	45 39 03             	cmp    %r8d,(%r11)
    5250:	63 08                	movsxd (%rax),%ecx
    5252:	09 30                	or     %esi,(%rax)
    5254:	16                   	(bad)
    5255:	05 21 03 1b 05       	add    $0x51b0321,%eax
    525a:	1b 26                	sbb    (%rsi),%esp
    525c:	38 04 4b             	cmp    %al,(%rbx,%rcx,2)
    525f:	05 2f 04 0a 07       	add    $0x70a042f,%eax
    5264:	09 07                	or     %eax,(%rdi)
    5266:	40 20 27             	and    %spl,(%rdi)
    5269:	04 0c                	add    $0xc,%al
    526b:	09 36                	or     %esi,(%rsi)
    526d:	03 3a                	add    (%rdx),%edi
    526f:	05 1a 07 04 0c       	add    $0xc04071a,%eax
    5274:	07                   	(bad)
    5275:	50                   	push   %rax
    5276:	49 37                	rex.WB (bad)
    5278:	33 0d 33 07 2e 08    	xor    0x82e0733(%rip),%ecx        # 0x82e59b1
    527e:	0a 06                	or     (%rsi),%al
    5280:	26 03 1d 08 02 80 d0 	es add -0x2f7ffdf8(%rip),%ebx        # 0xd080548f
    5287:	52                   	push   %rdx
    5288:	10 06                	adc    %al,(%rsi)
    528a:	08 09                	or     %cl,(%rcx)
    528c:	21 2e                	and    %ebp,(%rsi)
    528e:	08 2a                	or     %ch,(%rdx)
    5290:	16                   	(bad)
    5291:	1a 26                	sbb    (%rsi),%ah
    5293:	1c 14                	sbb    $0x14,%al
    5295:	17                   	(bad)
    5296:	09 4e 04             	or     %ecx,0x4(%rsi)
    5299:	24 09                	and    $0x9,%al
    529b:	44 0d 19 07 0a 06    	rex.R or $0x60a0719,%eax
    52a1:	48 08 27             	rex.W or %spl,(%rdi)
    52a4:	09 75 0b             	or     %esi,0xb(%rbp)
    52a7:	42                   	rex.X
    52a8:	3e 2a 06             	ds sub (%rsi),%al
    52ab:	3b 05 0a 06 51 06    	cmp    0x651060a(%rip),%eax        # 0x65158bb
    52b1:	01 05 10 03 05 0b    	add    %eax,0xb050310(%rip)        # 0xb0555c7
    52b7:	59                   	pop    %rcx
    52b8:	08 02                	or     %al,(%rdx)
    52ba:	1d 62 1e 48 08       	sbb    $0x8481e62,%eax
    52bf:	0a 80 a6 5e 22 45    	or     0x45225ea6(%rax),%al
    52c5:	0b 0a                	or     (%rdx),%ecx
    52c7:	06                   	(bad)
    52c8:	0d 13 3a 06 0a       	or     $0xa063a13,%eax
    52cd:	06                   	(bad)
    52ce:	14 1c                	adc    $0x1c,%al
    52d0:	2c 04                	sub    $0x4,%al
    52d2:	17                   	(bad)
    52d3:	80 b9 3c 64 53 0c 48 	cmpb   $0x48,0xc53643c(%rcx)
    52da:	09 0a                	or     %ecx,(%rdx)
    52dc:	46                   	rex.RX
    52dd:	45 1b 48 08          	sbb    0x8(%r8),%r9d
    52e1:	53                   	push   %rbx
    52e2:	0d 49 07 0a 56       	or     $0x560a0749,%eax
    52e7:	08 58 22             	or     %bl,0x22(%rax)
    52ea:	0e                   	(bad)
    52eb:	0a 06                	or     (%rsi),%al
    52ed:	46 0a 1d 03 47 49 37 	rex.RX or 0x37494703(%rip),%r11b        # 0x374999f7
    52f4:	03 0e                	add    (%rsi),%ecx
    52f6:	08 0a                	or     %cl,(%rdx)
    52f8:	06                   	(bad)
    52f9:	39 07                	cmp    %eax,(%rdi)
    52fb:	0a 06                	or     (%rsi),%al
    52fd:	2c 04                	sub    $0x4,%al
    52ff:	0a 80 f6 19 07 3b    	or     0x3b0719f6(%rax),%al
    5305:	03 1d 55 01 0f 32    	add    0x320f0155(%rip),%ebx        # 0x320f5460
    530b:	0d 83 9b 66 75       	or     $0x75669b83,%eax
    5310:	0b 80 c4 8a 4c 63    	or     0x634c8ac4(%rax),%eax
    5316:	0d 84 30 10 16       	or     $0x16103084,%eax
    531b:	0a 8f 9b 05 82 47    	or     0x4782059b(%rdi),%cl
    5321:	9a                   	(bad)
    5322:	b9 3a 86 c6 82       	mov    $0x82c6863a,%ecx
    5327:	39 07                	cmp    %eax,(%rdi)
    5329:	2a 04 5c             	sub    (%rsp,%rbx,2),%al
    532c:	06                   	(bad)
    532d:	26 0a 46 0a          	es or  0xa(%rsi),%al
    5331:	28 05 13 81 b0 3a    	sub    %al,0x3ab08113(%rip)        # 0x3ab0d44a
    5337:	80 c6 5b             	add    $0x5b,%dh
    533a:	05 34 2c 4b 04       	add    $0x44b2c34,%eax
    533f:	39 07                	cmp    %eax,(%rdi)
    5341:	11 40 05             	adc    %eax,0x5(%rax)
    5344:	0b 07                	or     (%rdi),%eax
    5346:	09 9c d6 29 20 61 73 	or     %ebx,0x73612029(%rsi,%rdx,8)
    534d:	a1 fd 81 33 0f 01 1d 	movabs 0xe061d010f3381fd,%eax
    5354:	06 0e 
    5356:	04 08                	add    $0x8,%al
    5358:	81 8c 89 04 6b 05 0d 	orl    $0x10070903,0xd056b04(%rcx,%rcx,4)
    535f:	03 09 07 10 
    5363:	8f                   	(bad)
    5364:	60                   	(bad)
    5365:	80 fd 03             	cmp    $0x3,%ch
    5368:	81 b4 06 17 0f 11 0f 	xorl   $0x3c740947,0xf110f17(%rsi,%rax,1)
    536f:	47 09 74 3c 
    5373:	80 f6 0a             	xor    $0xa,%dh
    5376:	73 08                	jae    0x5380
    5378:	70 15                	jo     0x538f
    537a:	46 7a 14             	rex.RX jp 0x5391
    537d:	0c 14                	or     $0x14,%al
    537f:	0c 57                	or     $0x57,%al
    5381:	09 19                	or     %ebx,(%rcx)
    5383:	80 87 81 47 03 85 42 	addb   $0x42,-0x7afcb87f(%rdi)
    538a:	0f 15 84 50 1f 06 06 	unpckhps -0x7ff9f9e1(%rax,%rdx,2),%xmm0
    5391:	80 
    5392:	d5 2b 05 3e 21 01 70 	{rex2 0x2b} add $0x7001213e,%rax
    5399:	2d 03 1a 04 02       	sub    $0x2041a03,%eax
    539e:	81 40 1f 11 3a 05 01 	addl   $0x1053a11,0x1f(%rax)
    53a5:	81 d0 2a 80 d6 2b    	adc    $0x2bd6802a,%eax
    53ab:	04 01                	add    $0x1,%al
    53ad:	80 c0 36             	add    $0x36,%al
    53b0:	08 02                	or     %al,(%rdx)
    53b2:	80 e0 80             	and    $0x80,%al
    53b5:	f7 29                	imull  (%rcx)
    53b7:	4c 04 0a             	rex.WR add $0xa,%al
    53ba:	04 02                	add    $0x2,%al
    53bc:	83 11 44             	adcl   $0x44,(%rcx)
    53bf:	4c 3d 80 c2 3c 06    	rex.WR cmp $0x63cc280,%rax
    53c5:	01 04 55 05 1b 34 02 	add    %eax,0x2341b05(,%rdx,2)
    53cc:	81 0e 2c 04 64 0c    	orl    $0xc64042c,(%rsi)
    53d2:	56                   	push   %rsi
    53d3:	0a 80 ae 38 1d 0d    	or     0xd1d38ae(%rax),%al
    53d9:	2c 04                	sub    $0x4,%al
    53db:	09 07                	or     %eax,(%rdi)
    53dd:	02 0e                	add    (%rsi),%cl
    53df:	06                   	(bad)
    53e0:	80 9a 83 d9 03 11 03 	sbbb   $0x3,0x1103d983(%rdx)
    53e7:	0d 03 80 da 06       	or     $0x6da8003,%eax
    53ec:	0c 04                	or     $0x4,%al
    53ee:	01 0f                	add    %ecx,(%rdi)
    53f0:	0c 04                	or     $0x4,%al
    53f2:	38 08                	cmp    %cl,(%rax)
    53f4:	0a 06                	or     (%rsi),%al
    53f6:	28 08                	sub    %cl,(%rax)
    53f8:	2c 04                	sub    $0x4,%al
    53fa:	02 0e                	add    (%rsi),%cl
    53fc:	09 27                	or     %esp,(%rdi)
    53fe:	81 58 08 1d 03 0b 03 	sbbl   $0x30b031d,0x8(%rax)
    5405:	3b 04 1e             	cmp    (%rsi,%rbx,1),%eax
    5408:	04 0a                	add    $0xa,%al
    540a:	07                   	(bad)
    540b:	80 fb 84             	cmp    $0x84,%bl
    540e:	05 00 01 03 05       	add    $0x5030100,%eax
    5413:	05 06 06 02 07       	add    $0x7020606,%eax
    5418:	06                   	(bad)
    5419:	08 07                	or     %al,(%rdi)
    541b:	09 11                	or     %edx,(%rcx)
    541d:	0a 1c 0b             	or     (%rbx,%rcx,1),%bl
    5420:	19 0c 19             	sbb    %ecx,(%rcx,%rbx,1)
    5423:	0d 10 0e 0c 0f       	or     $0xf0c0e10,%eax
    5428:	04 10                	add    $0x10,%al
    542a:	03 12                	add    (%rdx),%edx
    542c:	12 13                	adc    (%rbx),%dl
    542e:	09 16                	or     %edx,(%rsi)
    5430:	01 17                	add    %edx,(%rdi)
    5432:	04 18                	add    $0x18,%al
    5434:	01 19                	add    %ebx,(%rcx)
    5436:	03 1a                	add    (%rdx),%ebx
    5438:	09 1b                	or     %ebx,(%rbx)
    543a:	01 1c 02             	add    %ebx,(%rdx,%rax,1)
    543d:	1f                   	(bad)
    543e:	16                   	(bad)
    543f:	20 03                	and    %al,(%rbx)
    5441:	2b 02                	sub    (%rdx),%eax
    5443:	2d 0b 2e 01 30       	sub    $0x30012e0b,%eax
    5448:	04 31                	add    $0x31,%al
    544a:	02 32                	add    (%rdx),%dh
    544c:	01 a9 02 aa 04 ab    	add    %ebp,-0x54fb55fe(%rcx)
    5452:	08 fa                	or     %bh,%dl
    5454:	02 fb                	add    %bl,%bh
    5456:	05 fe 03 ff 09       	add    $0x9ff03fe,%eax
    545b:	ad                   	lods   (%rsi),%eax
    545c:	78 79                	js     0x54d7
    545e:	8b 8d a2 30 57 58    	mov    0x585730a2(%rbp),%ecx
    5464:	8b 8c 90 1c dd 0e 0f 	mov    0xf0edd1c(%rax,%rdx,4),%ecx
    546b:	4b                   	rex.WXB
    546c:	4c fb                	rex.WR sti
    546e:	fc                   	cld
    546f:	2e 2f                	cs (bad)
    5471:	3f                   	(bad)
    5472:	5c                   	pop    %rsp
    5473:	5d                   	pop    %rbp
    5474:	5f                   	pop    %rdi
    5475:	e2 84                	loop   0x53fb
    5477:	8d 8e 91 92 a9 b1    	lea    -0x4e566d6f(%rsi),%ecx
    547d:	ba bb c5 c6 c9       	mov    $0xc9c6c5bb,%edx
    5482:	ca de e4             	lret   $0xe4de
    5485:	e5 ff                	in     $0xff,%eax
    5487:	00 04 11             	add    %al,(%rcx,%rdx,1)
    548a:	12 29                	adc    (%rcx),%ch
    548c:	31 34 37             	xor    %esi,(%rdi,%rsi,1)
    548f:	3a 3b                	cmp    (%rbx),%bh
    5491:	3d 49 4a 5d 84       	cmp    $0x845d4a49,%eax
    5496:	8e 92 a9 b1 b4 ba    	mov    -0x454b4e57(%rdx),%ss
    549c:	bb c6 ca ce cf       	mov    $0xcfcecac6,%ebx
    54a1:	e4 e5                	in     $0xe5,%al
    54a3:	00 04 0d 0e 11 12 29 	add    %al,0x2912110e(,%rcx,1)
    54aa:	31 34 3a             	xor    %esi,(%rdx,%rdi,1)
    54ad:	3b 45 46             	cmp    0x46(%rbp),%eax
    54b0:	49                   	rex.WB
    54b1:	4a 5e                	rex.WX pop %rsi
    54b3:	64 65 84 91 9b 9d c9 	fs test %dl,%gs:-0x31366265(%rcx)
    54ba:	ce 
    54bb:	cf                   	iret
    54bc:	0d 11 29 3a 3b       	or     $0x3b3a2911,%eax
    54c1:	45                   	rex.RB
    54c2:	49 57                	rex.WB push %r15
    54c4:	5b                   	pop    %rbx
    54c5:	5e                   	pop    %rsi
    54c6:	5f                   	pop    %rdi
    54c7:	64 65 8d 91 a9 b4 ba 	fs lea %gs:-0x44454b57(%rcx),%edx
    54ce:	bb 
    54cf:	c5 c9 df e4          	vpandn %xmm4,%xmm6,%xmm4
    54d3:	e5 f0                	in     $0xf0,%eax
    54d5:	0d 11 45 49 64       	or     $0x64494511,%eax
    54da:	65 80 84 b2 bc be bf 	addb   $0xd7,%gs:-0x2a404144(%rdx,%rsi,4)
    54e1:	d5 d7 
    54e3:	f0 f1                	lock int1
    54e5:	83 85 8b a4 a6 be bf 	addl   $0xffffffbf,-0x41595b75(%rbp)
    54ec:	c5 c7 cf             	(bad)
    54ef:	da db                	fcmovu %st(3),%st
    54f1:	48 98                	cltq
    54f3:	bd cd c6 ce cf       	mov    $0xcfcec6cd,%ebp
    54f8:	49                   	rex.WB
    54f9:	4e                   	rex.WRX
    54fa:	4f 57                	rex.WRXB push %r15
    54fc:	59                   	pop    %rcx
    54fd:	5e                   	pop    %rsi
    54fe:	5f                   	pop    %rdi
    54ff:	89 8e 8f b1 b6 b7    	mov    %ecx,-0x48494e71(%rsi)
    5505:	bf c1 c6 c7 d7       	mov    $0xd7c7c6c1,%edi
    550a:	11 16                	adc    %edx,(%rsi)
    550c:	17                   	(bad)
    550d:	5b                   	pop    %rbx
    550e:	5c                   	pop    %rsp
    550f:	f6 f7                	div    %bh
    5511:	fe                   	(bad)
    5512:	ff 80 6d 71 de df    	incl   -0x20218e93(%rax)
    5518:	0e                   	(bad)
    5519:	1f                   	(bad)
    551a:	6e                   	outsb  (%rsi),(%dx)
    551b:	6f                   	outsl  (%rsi),(%dx)
    551c:	1c 1d                	sbb    $0x1d,%al
    551e:	5f                   	pop    %rdi
    551f:	7d 7e                	jge    0x559f
    5521:	ae                   	scas   (%rdi),%al
    5522:	af                   	scas   (%rdi),%eax
    5523:	de df                	(bad)
    5525:	4d bb bc 16 17 1e 1f 	rex.WRB movabs $0x4e47461f1e1716bc,%r11
    552c:	46 47 4e 
    552f:	4f 58                	rex.WRXB pop %r8
    5531:	5a                   	pop    %rdx
    5532:	5c                   	pop    %rsp
    5533:	5e                   	pop    %rsi
    5534:	7e 7f                	jle    0x55b5
    5536:	b5 c5                	mov    $0xc5,%ch
    5538:	d4                   	(bad)
    5539:	d5 dc f0             	{rex2 0xdc} (bad)
    553c:	f1                   	int1
    553d:	f5                   	cmc
    553e:	72 73                	jb     0x55b3
    5540:	8f                   	(bad)
    5541:	74 75                	je     0x55b8
    5543:	26 2e 2f             	es cs (bad)
    5546:	a7                   	cmpsl  (%rdi),(%rsi)
    5547:	af                   	scas   (%rdi),%eax
    5548:	b7 bf                	mov    $0xbf,%bh
    554a:	c7                   	(bad)
    554b:	cf                   	iret
    554c:	d7                   	xlat   (%rbx)
    554d:	df 9a 00 40 97 98    	fistps -0x6768c000(%rdx)
    5553:	30 8f 1f ce ff 4e    	xor    %cl,0x4effce1f(%rdi)
    5559:	4f 5a                	rex.WRXB pop %r10
    555b:	5b                   	pop    %rbx
    555c:	07                   	(bad)
    555d:	08 0f                	or     %cl,(%rdi)
    555f:	10 27                	adc    %ah,(%rdi)
    5561:	2f                   	(bad)
    5562:	ee                   	out    %al,(%dx)
    5563:	ef                   	out    %eax,(%dx)
    5564:	6e                   	outsb  (%rsi),(%dx)
    5565:	6f                   	outsl  (%rsi),(%dx)
    5566:	37                   	(bad)
    5567:	3d 3f 42 45 53       	cmp    $0x5345423f,%eax
    556c:	67 75 c8             	addr32 jne 0x5537
    556f:	c9                   	leave
    5570:	d0 d1                	rcl    $1,%cl
    5572:	d8 d9                	fcomp  %st(1)
    5574:	e7 fe                	out    %eax,$0xfe
    5576:	ff 00                	incl   (%rax)
    5578:	20 5f 22             	and    %bl,0x22(%rdi)
    557b:	82                   	(bad)
    557c:	df 04 82             	filds  (%rdx,%rax,4)
    557f:	44 08 1b             	or     %r11b,(%rbx)
    5582:	04 06                	add    $0x6,%al
    5584:	11 81 ac 0e 80 ab    	adc    %eax,-0x547ff154(%rcx)
    558a:	05 20 07 81 1c       	add    $0x1c810720,%eax
    558f:	03 19                	add    (%rcx),%ebx
    5591:	08 01                	or     %al,(%rcx)
    5593:	04 2f                	add    $0x2f,%al
    5595:	04 34                	add    $0x34,%al
    5597:	04 07                	add    $0x7,%al
    5599:	03 01                	add    (%rcx),%eax
    559b:	07                   	(bad)
    559c:	06                   	(bad)
    559d:	07                   	(bad)
    559e:	11 0a                	adc    %ecx,(%rdx)
    55a0:	50                   	push   %rax
    55a1:	0f 12 07             	movlps (%rdi),%xmm0
    55a4:	55                   	push   %rbp
    55a5:	07                   	(bad)
    55a6:	03 04 1c             	add    (%rsp,%rbx,1),%eax
    55a9:	0a 09                	or     (%rcx),%cl
    55ab:	03 08                	add    (%rax),%ecx
    55ad:	03 07                	add    (%rdi),%eax
    55af:	03 02                	add    (%rdx),%eax
    55b1:	03 03                	add    (%rbx),%eax
    55b3:	03 0c 04             	add    (%rsp,%rax,1),%ecx
    55b6:	05 03 0b 06 01       	add    $0x1060b03,%eax
    55bb:	0e                   	(bad)
    55bc:	15 05 4e 07 1b       	adc    $0x1b074e05,%eax
    55c1:	07                   	(bad)
    55c2:	57                   	push   %rdi
    55c3:	07                   	(bad)
    55c4:	02 05 18 0c 50 04    	add    0x4500c18(%rip),%al        # 0x45061e2
    55ca:	43 03 2d 03 01 04 11 	rex.XB add 0x11040103(%rip),%ebp        # 0x110456d4
    55d1:	06                   	(bad)
    55d2:	0f 0c                	(bad)
    55d4:	3a 04 1d 25 5f 20 6d 	cmp    0x6d205f25(,%rbx,1),%al
    55db:	04 6a                	add    $0x6a,%al
    55dd:	25 80 c8 05 82       	and    $0x8205c880,%eax
    55e2:	b0 03                	mov    $0x3,%al
    55e4:	1a 06                	sbb    (%rsi),%al
    55e6:	82                   	(bad)
    55e7:	fd                   	std
    55e8:	03 59 07             	add    0x7(%rcx),%ebx
    55eb:	16                   	(bad)
    55ec:	09 18                	or     %ebx,(%rax)
    55ee:	09 14 0c             	or     %edx,(%rsp,%rcx,1)
    55f1:	14 0c                	adc    $0xc,%al
    55f3:	6a 06                	push   $0x6
    55f5:	0a 06                	or     (%rsi),%al
    55f7:	1a 06                	sbb    (%rsi),%al
    55f9:	59                   	pop    %rcx
    55fa:	07                   	(bad)
    55fb:	2b 05 46 0a 2c 04    	sub    0x42c0a46(%rip),%eax        # 0x42c6047
    5601:	0c 04                	or     $0x4,%al
    5603:	01 03                	add    %eax,(%rbx)
    5605:	31 0b                	xor    %ecx,(%rbx)
    5607:	2c 04                	sub    $0x4,%al
    5609:	1a 06                	sbb    (%rsi),%al
    560b:	0b 03                	or     (%rbx),%eax
    560d:	80 ac 06 0a 06 4c 14 	subb   $0x80,0x144c060a(%rsi,%rax,1)
    5614:	80 
    5615:	f4                   	hlt
    5616:	08 3c 03             	or     %bh,(%rbx,%rax,1)
    5619:	0f 03 3e             	lsl    (%rsi),%edi
    561c:	05 38 08 2b 05       	add    $0x52b0838,%eax
    5621:	82                   	(bad)
    5622:	ff 11                	call   *(%rcx)
    5624:	18 08                	sbb    %cl,(%rax)
    5626:	2f                   	(bad)
    5627:	11 2d 03 22 0e 21    	adc    %ebp,0x210e2203(%rip)        # 0x210e7830
    562d:	0f 80 8c 04 82 9a    	jo     0x9a825abf
    5633:	16                   	(bad)
    5634:	0b 15 88 94 05 2f    	or     0x2f059488(%rip),%edx        # 0x2f05eac2
    563a:	05 3b 07 02 0e       	add    $0xe02073b,%eax
    563f:	18 09                	sbb    %cl,(%rcx)
    5641:	80 be 22 74 0c 80 d6 	cmpb   $0xd6,-0x7ff38bde(%rsi)
    5648:	1a 81 10 05 80 e1    	sbb    -0x1e7ffaf0(%rcx),%al
    564e:	09 f2                	or     %esi,%edx
    5650:	9e                   	sahf
    5651:	03 37                	add    (%rdi),%esi
    5653:	09 81 5c 14 80 b8    	or     %eax,-0x477feba4(%rcx)
    5659:	08 80 dd 14 3c 03    	or     %al,0x33c14dd(%rax)
    565f:	0a 06                	or     (%rsi),%al
    5661:	38 08                	cmp    %cl,(%rax)
    5663:	46 08 0c 06          	or     %r9b,(%rsi,%r8,1)
    5667:	74 0b                	je     0x5674
    5669:	1e                   	(bad)
    566a:	03 5a 04             	add    0x4(%rdx),%ebx
    566d:	59                   	pop    %rcx
    566e:	09 80 83 18 1c 0a    	or     %eax,0xa1c1883(%rax)
    5674:	16                   	(bad)
    5675:	09 4c 04 80          	or     %ecx,-0x80(%rsp,%rax,1)
    5679:	8a 06                	mov    (%rsi),%al
    567b:	ab                   	stos   %eax,(%rdi)
    567c:	a4                   	movsb  (%rsi),(%rdi)
    567d:	0c 17                	or     $0x17,%al
    567f:	04 31                	add    $0x31,%al
    5681:	a1 04 81 da 26 07 0c 	movabs 0x5050c0726da8104,%eax
    5688:	05 05 
    568a:	82                   	(bad)
    568b:	b3 20                	mov    $0x20,%bl
    568d:	2a 06                	sub    (%rsi),%al
    568f:	4c 04 80             	rex.WR add $0x80,%al
    5692:	8d 04 80             	lea    (%rax,%rax,4),%eax
    5695:	be 03 1b 03 0f       	mov    $0xf031b03,%esi
    569a:	0d 00 00 03 00       	or     $0x30000,%eax
    569f:	00 83 04 20 00 91    	add    %al,-0x6effdffc(%rbx)
    56a5:	05 60 00 5d 13       	add    $0x135d0060,%eax
    56aa:	a0 00 12 17 20 1f 0c 	movabs 0x60200c1f20171200,%al
    56b1:	20 60 
    56b3:	1f                   	(bad)
    56b4:	ef                   	out    %eax,(%dx)
    56b5:	2c 60                	sub    $0x60,%al
    56b7:	2b 2a                	sub    (%rdx),%ebp
    56b9:	30 e0                	xor    %ah,%al
    56bb:	2b 6f a6             	sub    -0x5a(%rdi),%ebp
    56be:	a0 2c 02 a8 20 2d 1e 	movabs 0x20fb1e2d20a8022c,%al
    56c5:	fb 20 
    56c7:	2e 00 fe             	cs add %bh,%dh
    56ca:	60                   	(bad)
    56cb:	36 9e                	ss sahf
    56cd:	ff a0 36 fd 01 21    	jmp    *0x2101fd36(%rax)
    56d3:	37                   	(bad)
    56d4:	01 0a                	add    %ecx,(%rdx)
    56d6:	61                   	(bad)
    56d7:	37                   	(bad)
    56d8:	24 0d                	and    $0xd,%al
    56da:	21 38                	and    %edi,(%rax)
    56dc:	ab                   	stos   %eax,(%rdi)
    56dd:	0e                   	(bad)
    56de:	a1 39 2f 18 21 3a f3 	movabs 0x211ef33a21182f39,%eax
    56e5:	1e 21 
    56e7:	4b                   	rex.WXB
    56e8:	40 34 a1             	rex xor $0xa1,%al
    56eb:	53                   	push   %rbx
    56ec:	1e                   	(bad)
    56ed:	61                   	(bad)
    56ee:	e1 54                	loope  0x5744
    56f0:	f0 6a 61             	lock push $0x61
    56f3:	55                   	push   %rbp
    56f4:	4f 6f                	rex.WRXB outsl (%rsi),(%dx)
    56f6:	e1 55                	loope  0x574d
    56f8:	9d                   	popf
    56f9:	bc 61 56 00 cf       	mov    $0xcf005661,%esp
    56fe:	61                   	(bad)
    56ff:	57                   	push   %rdi
    5700:	65 d1 a1 57 00 da 21 	shll   $1,%gs:0x21da0057(%rcx)
    5707:	58                   	pop    %rax
    5708:	00 e0                	add    %ah,%al
    570a:	a1 59 ae e2 21 5b ec 	movabs 0xe1e4ec5b21e2ae59,%eax
    5711:	e4 e1 
    5713:	5c                   	pop    %rsp
    5714:	d0 e8                	shr    $1,%al
    5716:	61                   	(bad)
    5717:	5d                   	pop    %rbp
    5718:	20 00                	and    %al,(%rax)
    571a:	ee                   	out    %al,(%dx)
    571b:	5e                   	pop    %rsi
    571c:	f0 01 7f 5f          	lock add %edi,0x5f(%rdi)
    5720:	2e 2e 30 78 00       	cs cs xor %bh,0x0(%rax)
	...
    572d:	00 00                	add    %al,(%rax)
    572f:	00 1e                	add    %bl,(%rsi)
    5731:	00 00                	add    %al,(%rax)
    5733:	00 00                	add    %al,(%rax)
    5735:	00 00                	add    %al,(%rax)
    5737:	00 08                	add    %cl,(%rax)
    5739:	00 00                	add    %al,(%rax)
    573b:	00 00                	add    %al,(%rax)
    573d:	00 00                	add    %al,(%rax)
    573f:	00 fb                	add    %bh,%bl
    5741:	ff                   	(bad)
    5742:	ff 6f 00             	ljmp   *0x0(%rdi)
    5745:	00 00                	add    %al,(%rax)
    5747:	00 01                	add    %al,(%rcx)
    5749:	00 00                	add    %al,(%rax)
    574b:	08 00                	or     %al,(%rax)
    574d:	00 00                	add    %al,(%rax)
    574f:	00 15 00 00 00 00    	add    %dl,0x0(%rip)        # 0x5755
	...
    575d:	00 00                	add    %al,(%rax)
    575f:	00 07                	add    %al,(%rdi)
    5761:	00 00                	add    %al,(%rax)
    5763:	00 00                	add    %al,(%rax)
    5765:	00 00                	add    %al,(%rax)
    5767:	00 18                	add    %bl,(%rax)
    5769:	40 00 00             	rex add %al,(%rax)
    576c:	00 00                	add    %al,(%rax)
    576e:	00 00                	add    %al,(%rax)
    5770:	08 00                	or     %al,(%rax)
    5772:	00 00                	add    %al,(%rax)
    5774:	00 00                	add    %al,(%rax)
    5776:	00 00                	add    %al,(%rax)
    5778:	88 02                	mov    %al,(%rdx)
    577a:	00 00                	add    %al,(%rax)
    577c:	00 00                	add    %al,(%rax)
    577e:	00 00                	add    %al,(%rax)
    5780:	09 00                	or     %eax,(%rax)
    5782:	00 00                	add    %al,(%rax)
    5784:	00 00                	add    %al,(%rax)
    5786:	00 00                	add    %al,(%rax)
    5788:	18 00                	sbb    %al,(%rax)
    578a:	00 00                	add    %al,(%rax)
    578c:	00 00                	add    %al,(%rax)
    578e:	00 00                	add    %al,(%rax)
    5790:	f9                   	stc
    5791:	ff                   	(bad)
    5792:	ff 6f 00             	ljmp   *0x0(%rdi)
    5795:	00 00                	add    %al,(%rax)
    5797:	00 1b                	add    %bl,(%rbx)
    5799:	00 00                	add    %al,(%rax)
    579b:	00 00                	add    %al,(%rax)
    579d:	00 00                	add    %al,(%rax)
    579f:	00 06                	add    %al,(%rsi)
    57a1:	00 00                	add    %al,(%rax)
    57a3:	00 00                	add    %al,(%rax)
    57a5:	00 00                	add    %al,(%rax)
    57a7:	00 d0                	add    %dl,%al
    57a9:	3f                   	(bad)
    57aa:	00 00                	add    %al,(%rax)
    57ac:	00 00                	add    %al,(%rax)
    57ae:	00 00                	add    %al,(%rax)
    57b0:	0b 00                	or     (%rax),%eax
    57b2:	00 00                	add    %al,(%rax)
    57b4:	00 00                	add    %al,(%rax)
    57b6:	00 00                	add    %al,(%rax)
    57b8:	18 00                	sbb    %al,(%rax)
    57ba:	00 00                	add    %al,(%rax)
    57bc:	00 00                	add    %al,(%rax)
    57be:	00 00                	add    %al,(%rax)
    57c0:	05 00 00 00 00       	add    $0x0,%eax
    57c5:	00 00                	add    %al,(%rax)
    57c7:	00 14 40             	add    %dl,(%rax,%rax,2)
    57ca:	00 00                	add    %al,(%rax)
    57cc:	00 00                	add    %al,(%rax)
    57ce:	00 00                	add    %al,(%rax)
    57d0:	0a 00                	or     (%rax),%al
    57d2:	00 00                	add    %al,(%rax)
    57d4:	00 00                	add    %al,(%rax)
    57d6:	00 00                	add    %al,(%rax)
    57d8:	01 00                	add    %eax,(%rax)
    57da:	00 00                	add    %al,(%rax)
    57dc:	00 00                	add    %al,(%rax)
    57de:	00 00                	add    %al,(%rax)
    57e0:	f5                   	cmc
    57e1:	fe                   	(bad)
    57e2:	ff 6f 00             	ljmp   *0x0(%rdi)
    57e5:	00 00                	add    %al,(%rax)
    57e7:	00 e8                	add    %ch,%al
    57e9:	3f                   	(bad)
    57ea:	00 00                	add    %al,(%rax)
    57ec:	00 00                	add    %al,(%rax)
    57ee:	00 00                	add    %al,(%rax)
    57f0:	04 00                	add    $0x0,%al
    57f2:	00 00                	add    %al,(%rax)
    57f4:	00 00                	add    %al,(%rax)
    57f6:	00 00                	add    %al,(%rax)
    57f8:	04 40                	add    $0x40,%al
	...
    589e:	00 00                	add    %al,(%rax)
    58a0:	10 00                	adc    %al,(%rax)
    58a2:	00 00                	add    %al,(%rax)
    58a4:	00 00                	add    %al,(%rax)
    58a6:	00 00                	add    %al,(%rax)
    58a8:	b4 00                	mov    $0x0,%ah
    58aa:	00 00                	add    %al,(%rax)
    58ac:	2b 00                	sub    (%rax),%eax
	...
    58b6:	00 00                	add    %al,(%rax)
    58b8:	10 00                	adc    %al,(%rax)
    58ba:	00 00                	add    %al,(%rax)
    58bc:	00 00                	add    %al,(%rax)
    58be:	00 00                	add    %al,(%rax)
    58c0:	b8 00 00 00 3d       	mov    $0x3d000000,%eax
	...
    58cd:	00 00                	add    %al,(%rax)
    58cf:	00 10                	add    %dl,(%rax)
    58d1:	00 00                	add    %al,(%rax)
    58d3:	00 00                	add    %al,(%rax)
    58d5:	00 00                	add    %al,(%rax)
    58d7:	00 16                	add    %dl,(%rsi)
    58d9:	01 00                	add    %eax,(%rax)
    58db:	00 30                	add    %dh,(%rax)
	...
    58e5:	00 00                	add    %al,(%rax)
    58e7:	00 10                	add    %dl,(%rax)
    58e9:	00 00                	add    %al,(%rax)
    58eb:	00 00                	add    %al,(%rax)
    58ed:	00 00                	add    %al,(%rax)
    58ef:	00 96 00 00 00 20    	add    %dl,0x20000000(%rsi)
	...
    58fd:	00 00                	add    %al,(%rax)
    58ff:	00 10                	add    %dl,(%rax)
    5901:	00 00                	add    %al,(%rax)
    5903:	00 00                	add    %al,(%rax)
    5905:	00 00                	add    %al,(%rax)
    5907:	00 99 00 00 00 0d    	add    %bl,0xd000000(%rcx)
	...
    5915:	00 00                	add    %al,(%rax)
    5917:	00 10                	add    %dl,(%rax)
    5919:	00 00                	add    %al,(%rax)
    591b:	00 00                	add    %al,(%rax)
    591d:	00 00                	add    %al,(%rax)
    591f:	00 48 02             	add    %cl,0x2(%rax)
    5922:	00 00                	add    %al,(%rax)
    5924:	0b 00                	or     (%rax),%eax
	...
    592e:	00 00                	add    %al,(%rax)
    5930:	10 00                	adc    %al,(%rax)
    5932:	00 00                	add    %al,(%rax)
    5934:	00 00                	add    %al,(%rax)
    5936:	00 00                	add    %al,(%rax)
    5938:	46 02 00             	rex.RX add (%rax),%r8b
    593b:	00 15 00 00 00 00    	add    %dl,0x0(%rip)        # 0x5941
    5941:	00 00                	add    %al,(%rax)
    5943:	00 00                	add    %al,(%rax)
    5945:	00 00                	add    %al,(%rax)
    5947:	00 10                	add    %dl,(%rax)
    5949:	00 00                	add    %al,(%rax)
    594b:	00 00                	add    %al,(%rax)
    594d:	00 00                	add    %al,(%rax)
    594f:	00 4b 01             	add    %cl,0x1(%rbx)
    5952:	00 00                	add    %al,(%rax)
    5954:	19 00                	sbb    %eax,(%rax)
	...
    595e:	00 00                	add    %al,(%rax)
    5960:	55                   	push   %rbp
    5961:	00 00                	add    %al,(%rax)
    5963:	00 00                	add    %al,(%rax)
    5965:	00 00                	add    %al,(%rax)
    5967:	00 0a                	add    %cl,(%rdx)
    5969:	00 00                	add    %al,(%rax)
    596b:	00 2b                	add    %ch,(%rbx)
	...
    5975:	00 00                	add    %al,(%rax)
    5977:	00 55 00             	add    %dl,0x0(%rbp)
    597a:	00 00                	add    %al,(%rax)
    597c:	00 00                	add    %al,(%rax)
    597e:	00 00                	add    %al,(%rax)
    5980:	1a 00                	sbb    (%rax),%al
    5982:	00 00                	add    %al,(%rax)
    5984:	36 00 00             	ss add %al,(%rax)
	...
